; ModuleID = '/afs/cern.ch/user/p/psiddire/CMSSW_10_2_2/src/VivadoHLSProjects/BitShift/BitShift/solution1/.autopilot/db/a.o.3.bc'
target datalayout = "e-p:64:64:64-i1:8:8-i8:8:8-i16:16:16-i32:32:32-i64:64:64-f32:32:32-f64:64:64-v64:64:64-v128:128:128-a0:0:64-s0:64:64-f80:128:128-n8:16:32:64-S128"
target triple = "x86_64-unknown-linux-gnu"

@llvm_global_ctors_1 = appending global [1 x void ()*] [void ()* @_GLOBAL__I_a] ; [#uses=0 type=[1 x void ()*]*]
@llvm_global_ctors_0 = appending global [1 x i32] [i32 65535] ; [#uses=0 type=[1 x i32]*]
@BitShift_str = internal unnamed_addr constant [9 x i8] c"BitShift\00" ; [#uses=1 type=[9 x i8]*]

; [#uses=1]
declare i25 @llvm.part.select.i25(i25, i32, i32) nounwind readnone

; [#uses=7]
declare void @llvm.dbg.value(metadata, i64, metadata) nounwind readnone

; [#uses=1]
define weak void @_ssdm_op_SpecTopModule(...) {
entry:
  ret void
}

; [#uses=2]
define weak void @_ssdm_op_SpecBitsMap(...) {
entry:
  ret void
}

; [#uses=2]
define weak i19 @_ssdm_op_PartSelect.i19.i25.i32.i32(i25, i32, i32) nounwind readnone {
entry:
  %empty = call i25 @llvm.part.select.i25(i25 %0, i32 %1, i32 %2) ; [#uses=1 type=i25]
  %empty_4 = trunc i25 %empty to i19              ; [#uses=1 type=i19]
  ret i19 %empty_4
}

; [#uses=1]
define weak i23 @_ssdm_op_BitConcatenate.i23.i18.i5(i18, i5) nounwind readnone {
entry:
  %empty = zext i18 %0 to i23                     ; [#uses=1 type=i23]
  %empty_5 = zext i5 %1 to i23                    ; [#uses=1 type=i23]
  %empty_6 = shl i23 %empty, 5                    ; [#uses=1 type=i23]
  %empty_7 = or i23 %empty_6, %empty_5            ; [#uses=1 type=i23]
  ret i23 %empty_7
}

; [#uses=1]
define weak i20 @_ssdm_op_BitConcatenate.i20.i18.i2(i18, i2) nounwind readnone {
entry:
  %empty = zext i18 %0 to i20                     ; [#uses=1 type=i20]
  %empty_8 = zext i2 %1 to i20                    ; [#uses=1 type=i20]
  %empty_9 = shl i20 %empty, 2                    ; [#uses=1 type=i20]
  %empty_10 = or i20 %empty_9, %empty_8           ; [#uses=1 type=i20]
  ret i20 %empty_10
}

; [#uses=1]
declare void @_GLOBAL__I_a() nounwind section ".text.startup"

; [#uses=0]
define void @BitShift([2 x i18]* %a_V, [2 x i19]* %b_V) {
_ZrsILi25ELb1EE11ap_int_baseIXT_EXT0_EXleT_Li64EEERKS1_i.exit2:
  call void (...)* @_ssdm_op_SpecBitsMap([2 x i18]* %a_V), !map !44
  call void (...)* @_ssdm_op_SpecBitsMap([2 x i19]* %b_V), !map !50
  %b_V_addr = getelementptr [2 x i19]* %b_V, i64 0, i64 0 ; [#uses=1 type=i19*]
  %a_V_addr = getelementptr [2 x i18]* %a_V, i64 0, i64 0 ; [#uses=1 type=i18*]
  call void (...)* @_ssdm_op_SpecTopModule([9 x i8]* @BitShift_str) nounwind
  call void @llvm.dbg.value(metadata !{[2 x i18]* %a_V}, i64 0, metadata !54), !dbg !1004 ; [debug line = 5:27] [debug variable = a.V]
  call void @llvm.dbg.value(metadata !{[2 x i19]* %b_V}, i64 0, metadata !1005), !dbg !1014 ; [debug line = 5:44] [debug variable = b.V]
  %a_V_load = load i18* %a_V_addr, align 4, !dbg !1015 ; [#uses=2 type=i18] [debug line = 1450:95@1450:111@3365:0@9:7]
  %p_shl = call i23 @_ssdm_op_BitConcatenate.i23.i18.i5(i18 %a_V_load, i5 0), !dbg !1025 ; [#uses=1 type=i23] [debug line = 3365:0@9:7]
  %p_shl_cast = zext i23 %p_shl to i24, !dbg !1025 ; [#uses=1 type=i24] [debug line = 3365:0@9:7]
  %p_neg = sub i24 0, %p_shl_cast                 ; [#uses=1 type=i24]
  %p_neg_cast = sext i24 %p_neg to i25            ; [#uses=1 type=i25]
  %p_shl4 = call i20 @_ssdm_op_BitConcatenate.i20.i18.i2(i18 %a_V_load, i2 0), !dbg !1025 ; [#uses=1 type=i20] [debug line = 3365:0@9:7]
  %p_shl4_cast = zext i20 %p_shl4 to i25, !dbg !1025 ; [#uses=1 type=i25] [debug line = 3365:0@9:7]
  %r_V_2 = sub i25 %p_neg_cast, %p_shl4_cast, !dbg !1025 ; [#uses=1 type=i25] [debug line = 3365:0@9:7]
  call void @llvm.dbg.value(metadata !{i25 %r_V_2}, i64 0, metadata !1806), !dbg !1025 ; [debug line = 3365:0@9:7] [debug variable = r.V]
  call void @llvm.dbg.value(metadata !{i25 %r_V_2}, i64 0, metadata !1813), !dbg !1901 ; [debug line = 172:10@9:7] [debug variable = x.V]
  call void @llvm.dbg.value(metadata !{[2 x i19]* %b_V}, i64 0, metadata !1904), !dbg !1907 ; [debug line = 171:52@10:10] [debug variable = ssdm_int<19 + 1024 * 0, true>.V]
  %phitmp = call i19 @_ssdm_op_PartSelect.i19.i25.i32.i32(i25 %r_V_2, i32 6, i32 24), !dbg !1909 ; [#uses=1 type=i19] [debug line = 3526:0@11:10]
  store i19 %phitmp, i19* %b_V_addr, align 4, !dbg !1916 ; [debug line = 172:10@11:10]
  %a_V_addr_1 = getelementptr [2 x i18]* %a_V, i64 0, i64 1, !dbg !1918 ; [#uses=1 type=i18*] [debug line = 1450:95@1450:111@3365:0@12:10]
  %a_V_load_1 = load i18* %a_V_addr_1, align 4, !dbg !1918 ; [#uses=1 type=i18] [debug line = 1450:95@1450:111@3365:0@12:10]
  %lhs_V = zext i18 %a_V_load_1 to i25, !dbg !1918 ; [#uses=1 type=i25] [debug line = 1450:95@1450:111@3365:0@12:10]
  call void @llvm.dbg.value(metadata !{i25 %lhs_V}, i64 0, metadata !1922), !dbg !1918 ; [debug line = 1450:95@1450:111@3365:0@12:10] [debug variable = lhs.V]
  %r_V = mul i25 %lhs_V, -35, !dbg !1920          ; [#uses=1 type=i25] [debug line = 3365:0@12:10]
  call void @llvm.dbg.value(metadata !{i25 %r_V}, i64 0, metadata !1806), !dbg !1920 ; [debug line = 3365:0@12:10] [debug variable = r.V]
  %phitmp1 = call i19 @_ssdm_op_PartSelect.i19.i25.i32.i32(i25 %r_V, i32 6, i32 24), !dbg !1924 ; [#uses=1 type=i19] [debug line = 3526:0@12:10]
  %b_V_addr_1 = getelementptr [2 x i19]* %b_V, i64 0, i64 1, !dbg !1925 ; [#uses=1 type=i19*] [debug line = 172:10@12:10]
  store i19 %phitmp1, i19* %b_V_addr_1, align 4, !dbg !1925 ; [debug line = 172:10@12:10]
  ret void, !dbg !1926                            ; [debug line = 13:1]
}

!opencl.kernels = !{!0, !7, !7, !13, !13, !19, !22, !13, !13, !13, !7, !7, !26, !28, !30, !30, !32, !32, !34, !34, !34, !34, !13, !13}
!hls.encrypted.func = !{}
!llvm.map.gv = !{!37}

!0 = metadata !{null, metadata !1, metadata !2, metadata !3, metadata !4, metadata !5, metadata !6}
!1 = metadata !{metadata !"kernel_arg_addr_space", i32 1, i32 1}
!2 = metadata !{metadata !"kernel_arg_access_qual", metadata !"none", metadata !"none"}
!3 = metadata !{metadata !"kernel_arg_type", metadata !"ap_uint<18>*", metadata !"ap_int<19>*"}
!4 = metadata !{metadata !"kernel_arg_type_qual", metadata !"", metadata !""}
!5 = metadata !{metadata !"kernel_arg_name", metadata !"a", metadata !"b"}
!6 = metadata !{metadata !"reqd_work_group_size", i32 1, i32 1, i32 1}
!7 = metadata !{null, metadata !8, metadata !9, metadata !10, metadata !11, metadata !12, metadata !6}
!8 = metadata !{metadata !"kernel_arg_addr_space", i32 0}
!9 = metadata !{metadata !"kernel_arg_access_qual", metadata !"none"}
!10 = metadata !{metadata !"kernel_arg_type", metadata !"const ap_int_base<25, true> &"}
!11 = metadata !{metadata !"kernel_arg_type_qual", metadata !""}
!12 = metadata !{metadata !"kernel_arg_name", metadata !"op"}
!13 = metadata !{null, metadata !14, metadata !15, metadata !16, metadata !17, metadata !18, metadata !6}
!14 = metadata !{metadata !"kernel_arg_addr_space"}
!15 = metadata !{metadata !"kernel_arg_access_qual"}
!16 = metadata !{metadata !"kernel_arg_type"}
!17 = metadata !{metadata !"kernel_arg_type_qual"}
!18 = metadata !{metadata !"kernel_arg_name"}
!19 = metadata !{null, metadata !8, metadata !9, metadata !20, metadata !11, metadata !21, metadata !6}
!20 = metadata !{metadata !"kernel_arg_type", metadata !"const ap_int<19> &"}
!21 = metadata !{metadata !"kernel_arg_name", metadata !"op2"}
!22 = metadata !{null, metadata !23, metadata !2, metadata !24, metadata !4, metadata !25, metadata !6}
!23 = metadata !{metadata !"kernel_arg_addr_space", i32 0, i32 0}
!24 = metadata !{metadata !"kernel_arg_type", metadata !"const ap_int_base<25, true> &", metadata !"int"}
!25 = metadata !{metadata !"kernel_arg_name", metadata !"op", metadata !"op2"}
!26 = metadata !{null, metadata !8, metadata !9, metadata !27, metadata !11, metadata !21, metadata !6}
!27 = metadata !{metadata !"kernel_arg_type", metadata !"const ap_int<25> &"}
!28 = metadata !{null, metadata !23, metadata !2, metadata !29, metadata !4, metadata !25, metadata !6}
!29 = metadata !{metadata !"kernel_arg_type", metadata !"const ap_int_base<18, false> &", metadata !"const ap_int_base<7, true> &"}
!30 = metadata !{null, metadata !8, metadata !9, metadata !31, metadata !11, metadata !12, metadata !6}
!31 = metadata !{metadata !"kernel_arg_type", metadata !"const ap_int_base<7, true> &"}
!32 = metadata !{null, metadata !8, metadata !9, metadata !33, metadata !11, metadata !12, metadata !6}
!33 = metadata !{metadata !"kernel_arg_type", metadata !"const ap_int_base<18, false> &"}
!34 = metadata !{null, metadata !8, metadata !9, metadata !35, metadata !11, metadata !36, metadata !6}
!35 = metadata !{metadata !"kernel_arg_type", metadata !"int"}
!36 = metadata !{metadata !"kernel_arg_name", metadata !"val"}
!37 = metadata !{metadata !38, [1 x i32]* @llvm_global_ctors_0}
!38 = metadata !{metadata !39}
!39 = metadata !{i32 0, i32 31, metadata !40}
!40 = metadata !{metadata !41}
!41 = metadata !{metadata !"llvm.global_ctors.0", metadata !42, metadata !"", i32 0, i32 31}
!42 = metadata !{metadata !43}
!43 = metadata !{i32 0, i32 0, i32 1}
!44 = metadata !{metadata !45}
!45 = metadata !{i32 0, i32 17, metadata !46}
!46 = metadata !{metadata !47}
!47 = metadata !{metadata !"a.V", metadata !48, metadata !"uint18", i32 0, i32 17}
!48 = metadata !{metadata !49}
!49 = metadata !{i32 0, i32 1, i32 1}
!50 = metadata !{metadata !51}
!51 = metadata !{i32 0, i32 18, metadata !52}
!52 = metadata !{metadata !53}
!53 = metadata !{metadata !"b.V", metadata !48, metadata !"int19", i32 0, i32 18}
!54 = metadata !{i32 790531, metadata !55, metadata !"a.V", null, i32 5, metadata !995, i32 0, i32 0} ; [ DW_TAG_arg_variable_field ]
!55 = metadata !{i32 786689, metadata !56, metadata !"a", metadata !57, i32 16777221, metadata !60, i32 0, i32 0} ; [ DW_TAG_arg_variable ]
!56 = metadata !{i32 786478, i32 0, metadata !57, metadata !"BitShift", metadata !"BitShift", metadata !"_Z8BitShiftP7ap_uintILi18EEP6ap_intILi19EE", metadata !57, i32 5, metadata !58, i1 false, i1 true, i32 0, i32 0, null, i32 256, i1 false, null, null, null, metadata !78, i32 5} ; [ DW_TAG_subprogram ]
!57 = metadata !{i32 786473, metadata !"BitShift.cc", metadata !"/afs/cern.ch/user/p/psiddire/CMSSW_10_2_2/src/VivadoHLSProjects/BitShift", null} ; [ DW_TAG_file_type ]
!58 = metadata !{i32 786453, i32 0, metadata !"", i32 0, i32 0, i64 0, i64 0, i64 0, i32 0, null, metadata !59, i32 0, i32 0} ; [ DW_TAG_subroutine_type ]
!59 = metadata !{null, metadata !60, metadata !660}
!60 = metadata !{i32 786447, null, metadata !"", null, i32 0, i64 64, i64 64, i64 0, i32 0, metadata !61} ; [ DW_TAG_pointer_type ]
!61 = metadata !{i32 786434, null, metadata !"ap_uint<18>", metadata !62, i32 180, i64 32, i64 32, i32 0, i32 0, null, metadata !63, i32 0, null, metadata !659} ; [ DW_TAG_class_type ]
!62 = metadata !{i32 786473, metadata !"/opt/Xilinx/Vivado_HLS/2016.3/common/technology/autopilot/ap_int.h", metadata !"/afs/cern.ch/user/p/psiddire/CMSSW_10_2_2/src/VivadoHLSProjects/BitShift", null} ; [ DW_TAG_file_type ]
!63 = metadata !{metadata !64, metadata !591, metadata !595, metadata !598, metadata !601, metadata !604, metadata !607, metadata !610, metadata !613, metadata !616, metadata !619, metadata !622, metadata !625, metadata !628, metadata !631, metadata !634, metadata !637, metadata !640, metadata !647, metadata !652, metadata !656}
!64 = metadata !{i32 786460, metadata !61, null, metadata !62, i32 0, i64 0, i64 0, i64 0, i32 0, metadata !65} ; [ DW_TAG_inheritance ]
!65 = metadata !{i32 786434, null, metadata !"ap_int_base<18, false, true>", metadata !66, i32 1397, i64 32, i64 32, i32 0, i32 0, null, metadata !67, i32 0, null, metadata !589} ; [ DW_TAG_class_type ]
!66 = metadata !{i32 786473, metadata !"/opt/Xilinx/Vivado_HLS/2016.3/common/technology/autopilot/ap_int_syn.h", metadata !"/afs/cern.ch/user/p/psiddire/CMSSW_10_2_2/src/VivadoHLSProjects/BitShift", null} ; [ DW_TAG_file_type ]
!67 = metadata !{metadata !68, metadata !85, metadata !89, metadata !92, metadata !96, metadata !100, metadata !104, metadata !108, metadata !111, metadata !115, metadata !119, metadata !123, metadata !128, metadata !133, metadata !137, metadata !141, metadata !147, metadata !150, metadata !155, metadata !160, metadata !165, metadata !166, metadata !170, metadata !173, metadata !176, metadata !179, metadata !182, metadata !185, metadata !188, metadata !191, metadata !194, metadata !197, metadata !200, metadata !203, metadata !213, metadata !216, metadata !219, metadata !222, metadata !225, metadata !228, metadata !231, metadata !234, metadata !237, metadata !240, metadata !243, metadata !246, metadata !249, metadata !250, metadata !254, metadata !257, metadata !258, metadata !259, metadata !260, metadata !261, metadata !262, metadata !265, metadata !266, metadata !269, metadata !270, metadata !271, metadata !272, metadata !273, metadata !274, metadata !277, metadata !278, metadata !279, metadata !282, metadata !283, metadata !286, metadata !287, metadata !550, metadata !554, metadata !555, metadata !558, metadata !559, metadata !563, metadata !564, metadata !565, metadata !566, metadata !569, metadata !570, metadata !571, metadata !572, metadata !573, metadata !574, metadata !575, metadata !576, metadata !577, metadata !578, metadata !579, metadata !580, metadata !583, metadata !586}
!68 = metadata !{i32 786460, metadata !65, null, metadata !66, i32 0, i64 0, i64 0, i64 0, i32 0, metadata !69} ; [ DW_TAG_inheritance ]
!69 = metadata !{i32 786434, null, metadata !"ssdm_int<18 + 1024 * 0, false>", metadata !70, i32 20, i64 32, i64 32, i32 0, i32 0, null, metadata !71, i32 0, null, metadata !80} ; [ DW_TAG_class_type ]
!70 = metadata !{i32 786473, metadata !"/opt/Xilinx/Vivado_HLS/2016.3/common/technology/autopilot/etc/autopilot_dt.def", metadata !"/afs/cern.ch/user/p/psiddire/CMSSW_10_2_2/src/VivadoHLSProjects/BitShift", null} ; [ DW_TAG_file_type ]
!71 = metadata !{metadata !72, metadata !74}
!72 = metadata !{i32 786445, metadata !69, metadata !"V", metadata !70, i32 20, i64 18, i64 32, i64 0, i32 0, metadata !73} ; [ DW_TAG_member ]
!73 = metadata !{i32 786468, null, metadata !"uint18", null, i32 0, i64 18, i64 32, i64 0, i32 0, i32 7} ; [ DW_TAG_base_type ]
!74 = metadata !{i32 786478, i32 0, metadata !69, metadata !"ssdm_int", metadata !"ssdm_int", metadata !"", metadata !70, i32 20, metadata !75, i1 false, i1 false, i32 0, i32 0, null, i32 256, i1 false, null, null, i32 0, metadata !78, i32 20} ; [ DW_TAG_subprogram ]
!75 = metadata !{i32 786453, i32 0, metadata !"", i32 0, i32 0, i64 0, i64 0, i64 0, i32 0, null, metadata !76, i32 0, i32 0} ; [ DW_TAG_subroutine_type ]
!76 = metadata !{null, metadata !77}
!77 = metadata !{i32 786447, i32 0, metadata !"", i32 0, i32 0, i64 64, i64 64, i64 0, i32 64, metadata !69} ; [ DW_TAG_pointer_type ]
!78 = metadata !{metadata !79}
!79 = metadata !{i32 786468}                      ; [ DW_TAG_base_type ]
!80 = metadata !{metadata !81, metadata !83}
!81 = metadata !{i32 786480, null, metadata !"_AP_N", metadata !82, i64 18, null, i32 0, i32 0} ; [ DW_TAG_template_value_parameter ]
!82 = metadata !{i32 786468, null, metadata !"int", null, i32 0, i64 32, i64 32, i64 0, i32 0, i32 5} ; [ DW_TAG_base_type ]
!83 = metadata !{i32 786480, null, metadata !"_AP_S", metadata !84, i64 0, null, i32 0, i32 0} ; [ DW_TAG_template_value_parameter ]
!84 = metadata !{i32 786468, null, metadata !"bool", null, i32 0, i64 8, i64 8, i64 0, i32 0, i32 2} ; [ DW_TAG_base_type ]
!85 = metadata !{i32 786478, i32 0, metadata !65, metadata !"ap_int_base", metadata !"ap_int_base", metadata !"", metadata !66, i32 1438, metadata !86, i1 false, i1 false, i32 0, i32 0, null, i32 256, i1 false, null, null, i32 0, metadata !78, i32 1438} ; [ DW_TAG_subprogram ]
!86 = metadata !{i32 786453, i32 0, metadata !"", i32 0, i32 0, i64 0, i64 0, i64 0, i32 0, null, metadata !87, i32 0, i32 0} ; [ DW_TAG_subroutine_type ]
!87 = metadata !{null, metadata !88}
!88 = metadata !{i32 786447, i32 0, metadata !"", i32 0, i32 0, i64 64, i64 64, i64 0, i32 64, metadata !65} ; [ DW_TAG_pointer_type ]
!89 = metadata !{i32 786478, i32 0, metadata !65, metadata !"ap_int_base", metadata !"ap_int_base", metadata !"", metadata !66, i32 1460, metadata !90, i1 false, i1 false, i32 0, i32 0, null, i32 384, i1 false, null, null, i32 0, metadata !78, i32 1460} ; [ DW_TAG_subprogram ]
!90 = metadata !{i32 786453, i32 0, metadata !"", i32 0, i32 0, i64 0, i64 0, i64 0, i32 0, null, metadata !91, i32 0, i32 0} ; [ DW_TAG_subroutine_type ]
!91 = metadata !{null, metadata !88, metadata !84}
!92 = metadata !{i32 786478, i32 0, metadata !65, metadata !"ap_int_base", metadata !"ap_int_base", metadata !"", metadata !66, i32 1461, metadata !93, i1 false, i1 false, i32 0, i32 0, null, i32 384, i1 false, null, null, i32 0, metadata !78, i32 1461} ; [ DW_TAG_subprogram ]
!93 = metadata !{i32 786453, i32 0, metadata !"", i32 0, i32 0, i64 0, i64 0, i64 0, i32 0, null, metadata !94, i32 0, i32 0} ; [ DW_TAG_subroutine_type ]
!94 = metadata !{null, metadata !88, metadata !95}
!95 = metadata !{i32 786468, null, metadata !"signed char", null, i32 0, i64 8, i64 8, i64 0, i32 0, i32 6} ; [ DW_TAG_base_type ]
!96 = metadata !{i32 786478, i32 0, metadata !65, metadata !"ap_int_base", metadata !"ap_int_base", metadata !"", metadata !66, i32 1462, metadata !97, i1 false, i1 false, i32 0, i32 0, null, i32 384, i1 false, null, null, i32 0, metadata !78, i32 1462} ; [ DW_TAG_subprogram ]
!97 = metadata !{i32 786453, i32 0, metadata !"", i32 0, i32 0, i64 0, i64 0, i64 0, i32 0, null, metadata !98, i32 0, i32 0} ; [ DW_TAG_subroutine_type ]
!98 = metadata !{null, metadata !88, metadata !99}
!99 = metadata !{i32 786468, null, metadata !"unsigned char", null, i32 0, i64 8, i64 8, i64 0, i32 0, i32 8} ; [ DW_TAG_base_type ]
!100 = metadata !{i32 786478, i32 0, metadata !65, metadata !"ap_int_base", metadata !"ap_int_base", metadata !"", metadata !66, i32 1463, metadata !101, i1 false, i1 false, i32 0, i32 0, null, i32 384, i1 false, null, null, i32 0, metadata !78, i32 1463} ; [ DW_TAG_subprogram ]
!101 = metadata !{i32 786453, i32 0, metadata !"", i32 0, i32 0, i64 0, i64 0, i64 0, i32 0, null, metadata !102, i32 0, i32 0} ; [ DW_TAG_subroutine_type ]
!102 = metadata !{null, metadata !88, metadata !103}
!103 = metadata !{i32 786468, null, metadata !"short", null, i32 0, i64 16, i64 16, i64 0, i32 0, i32 5} ; [ DW_TAG_base_type ]
!104 = metadata !{i32 786478, i32 0, metadata !65, metadata !"ap_int_base", metadata !"ap_int_base", metadata !"", metadata !66, i32 1464, metadata !105, i1 false, i1 false, i32 0, i32 0, null, i32 384, i1 false, null, null, i32 0, metadata !78, i32 1464} ; [ DW_TAG_subprogram ]
!105 = metadata !{i32 786453, i32 0, metadata !"", i32 0, i32 0, i64 0, i64 0, i64 0, i32 0, null, metadata !106, i32 0, i32 0} ; [ DW_TAG_subroutine_type ]
!106 = metadata !{null, metadata !88, metadata !107}
!107 = metadata !{i32 786468, null, metadata !"unsigned short", null, i32 0, i64 16, i64 16, i64 0, i32 0, i32 7} ; [ DW_TAG_base_type ]
!108 = metadata !{i32 786478, i32 0, metadata !65, metadata !"ap_int_base", metadata !"ap_int_base", metadata !"", metadata !66, i32 1465, metadata !109, i1 false, i1 false, i32 0, i32 0, null, i32 384, i1 false, null, null, i32 0, metadata !78, i32 1465} ; [ DW_TAG_subprogram ]
!109 = metadata !{i32 786453, i32 0, metadata !"", i32 0, i32 0, i64 0, i64 0, i64 0, i32 0, null, metadata !110, i32 0, i32 0} ; [ DW_TAG_subroutine_type ]
!110 = metadata !{null, metadata !88, metadata !82}
!111 = metadata !{i32 786478, i32 0, metadata !65, metadata !"ap_int_base", metadata !"ap_int_base", metadata !"", metadata !66, i32 1466, metadata !112, i1 false, i1 false, i32 0, i32 0, null, i32 384, i1 false, null, null, i32 0, metadata !78, i32 1466} ; [ DW_TAG_subprogram ]
!112 = metadata !{i32 786453, i32 0, metadata !"", i32 0, i32 0, i64 0, i64 0, i64 0, i32 0, null, metadata !113, i32 0, i32 0} ; [ DW_TAG_subroutine_type ]
!113 = metadata !{null, metadata !88, metadata !114}
!114 = metadata !{i32 786468, null, metadata !"unsigned int", null, i32 0, i64 32, i64 32, i64 0, i32 0, i32 7} ; [ DW_TAG_base_type ]
!115 = metadata !{i32 786478, i32 0, metadata !65, metadata !"ap_int_base", metadata !"ap_int_base", metadata !"", metadata !66, i32 1467, metadata !116, i1 false, i1 false, i32 0, i32 0, null, i32 384, i1 false, null, null, i32 0, metadata !78, i32 1467} ; [ DW_TAG_subprogram ]
!116 = metadata !{i32 786453, i32 0, metadata !"", i32 0, i32 0, i64 0, i64 0, i64 0, i32 0, null, metadata !117, i32 0, i32 0} ; [ DW_TAG_subroutine_type ]
!117 = metadata !{null, metadata !88, metadata !118}
!118 = metadata !{i32 786468, null, metadata !"long int", null, i32 0, i64 64, i64 64, i64 0, i32 0, i32 5} ; [ DW_TAG_base_type ]
!119 = metadata !{i32 786478, i32 0, metadata !65, metadata !"ap_int_base", metadata !"ap_int_base", metadata !"", metadata !66, i32 1468, metadata !120, i1 false, i1 false, i32 0, i32 0, null, i32 384, i1 false, null, null, i32 0, metadata !78, i32 1468} ; [ DW_TAG_subprogram ]
!120 = metadata !{i32 786453, i32 0, metadata !"", i32 0, i32 0, i64 0, i64 0, i64 0, i32 0, null, metadata !121, i32 0, i32 0} ; [ DW_TAG_subroutine_type ]
!121 = metadata !{null, metadata !88, metadata !122}
!122 = metadata !{i32 786468, null, metadata !"long unsigned int", null, i32 0, i64 64, i64 64, i64 0, i32 0, i32 7} ; [ DW_TAG_base_type ]
!123 = metadata !{i32 786478, i32 0, metadata !65, metadata !"ap_int_base", metadata !"ap_int_base", metadata !"", metadata !66, i32 1469, metadata !124, i1 false, i1 false, i32 0, i32 0, null, i32 384, i1 false, null, null, i32 0, metadata !78, i32 1469} ; [ DW_TAG_subprogram ]
!124 = metadata !{i32 786453, i32 0, metadata !"", i32 0, i32 0, i64 0, i64 0, i64 0, i32 0, null, metadata !125, i32 0, i32 0} ; [ DW_TAG_subroutine_type ]
!125 = metadata !{null, metadata !88, metadata !126}
!126 = metadata !{i32 786454, null, metadata !"ap_slong", metadata !66, i32 111, i64 0, i64 0, i64 0, i32 0, metadata !127} ; [ DW_TAG_typedef ]
!127 = metadata !{i32 786468, null, metadata !"long long int", null, i32 0, i64 64, i64 64, i64 0, i32 0, i32 5} ; [ DW_TAG_base_type ]
!128 = metadata !{i32 786478, i32 0, metadata !65, metadata !"ap_int_base", metadata !"ap_int_base", metadata !"", metadata !66, i32 1470, metadata !129, i1 false, i1 false, i32 0, i32 0, null, i32 384, i1 false, null, null, i32 0, metadata !78, i32 1470} ; [ DW_TAG_subprogram ]
!129 = metadata !{i32 786453, i32 0, metadata !"", i32 0, i32 0, i64 0, i64 0, i64 0, i32 0, null, metadata !130, i32 0, i32 0} ; [ DW_TAG_subroutine_type ]
!130 = metadata !{null, metadata !88, metadata !131}
!131 = metadata !{i32 786454, null, metadata !"ap_ulong", metadata !66, i32 110, i64 0, i64 0, i64 0, i32 0, metadata !132} ; [ DW_TAG_typedef ]
!132 = metadata !{i32 786468, null, metadata !"long long unsigned int", null, i32 0, i64 64, i64 64, i64 0, i32 0, i32 7} ; [ DW_TAG_base_type ]
!133 = metadata !{i32 786478, i32 0, metadata !65, metadata !"ap_int_base", metadata !"ap_int_base", metadata !"", metadata !66, i32 1471, metadata !134, i1 false, i1 false, i32 0, i32 0, null, i32 384, i1 false, null, null, i32 0, metadata !78, i32 1471} ; [ DW_TAG_subprogram ]
!134 = metadata !{i32 786453, i32 0, metadata !"", i32 0, i32 0, i64 0, i64 0, i64 0, i32 0, null, metadata !135, i32 0, i32 0} ; [ DW_TAG_subroutine_type ]
!135 = metadata !{null, metadata !88, metadata !136}
!136 = metadata !{i32 786468, null, metadata !"float", null, i32 0, i64 32, i64 32, i64 0, i32 0, i32 4} ; [ DW_TAG_base_type ]
!137 = metadata !{i32 786478, i32 0, metadata !65, metadata !"ap_int_base", metadata !"ap_int_base", metadata !"", metadata !66, i32 1472, metadata !138, i1 false, i1 false, i32 0, i32 0, null, i32 384, i1 false, null, null, i32 0, metadata !78, i32 1472} ; [ DW_TAG_subprogram ]
!138 = metadata !{i32 786453, i32 0, metadata !"", i32 0, i32 0, i64 0, i64 0, i64 0, i32 0, null, metadata !139, i32 0, i32 0} ; [ DW_TAG_subroutine_type ]
!139 = metadata !{null, metadata !88, metadata !140}
!140 = metadata !{i32 786468, null, metadata !"double", null, i32 0, i64 64, i64 64, i64 0, i32 0, i32 4} ; [ DW_TAG_base_type ]
!141 = metadata !{i32 786478, i32 0, metadata !65, metadata !"ap_int_base", metadata !"ap_int_base", metadata !"", metadata !66, i32 1499, metadata !142, i1 false, i1 false, i32 0, i32 0, null, i32 256, i1 false, null, null, i32 0, metadata !78, i32 1499} ; [ DW_TAG_subprogram ]
!142 = metadata !{i32 786453, i32 0, metadata !"", i32 0, i32 0, i64 0, i64 0, i64 0, i32 0, null, metadata !143, i32 0, i32 0} ; [ DW_TAG_subroutine_type ]
!143 = metadata !{null, metadata !88, metadata !144}
!144 = metadata !{i32 786447, null, metadata !"", null, i32 0, i64 64, i64 64, i64 0, i32 0, metadata !145} ; [ DW_TAG_pointer_type ]
!145 = metadata !{i32 786470, null, metadata !"", null, i32 0, i64 0, i64 0, i64 0, i32 0, metadata !146} ; [ DW_TAG_const_type ]
!146 = metadata !{i32 786468, null, metadata !"char", null, i32 0, i64 8, i64 8, i64 0, i32 0, i32 6} ; [ DW_TAG_base_type ]
!147 = metadata !{i32 786478, i32 0, metadata !65, metadata !"ap_int_base", metadata !"ap_int_base", metadata !"", metadata !66, i32 1506, metadata !148, i1 false, i1 false, i32 0, i32 0, null, i32 256, i1 false, null, null, i32 0, metadata !78, i32 1506} ; [ DW_TAG_subprogram ]
!148 = metadata !{i32 786453, i32 0, metadata !"", i32 0, i32 0, i64 0, i64 0, i64 0, i32 0, null, metadata !149, i32 0, i32 0} ; [ DW_TAG_subroutine_type ]
!149 = metadata !{null, metadata !88, metadata !144, metadata !95}
!150 = metadata !{i32 786478, i32 0, metadata !65, metadata !"read", metadata !"read", metadata !"_ZNV11ap_int_baseILi18ELb0ELb1EE4readEv", metadata !66, i32 1527, metadata !151, i1 false, i1 false, i32 0, i32 0, null, i32 256, i1 false, null, null, i32 0, metadata !78, i32 1527} ; [ DW_TAG_subprogram ]
!151 = metadata !{i32 786453, i32 0, metadata !"", i32 0, i32 0, i64 0, i64 0, i64 0, i32 0, null, metadata !152, i32 0, i32 0} ; [ DW_TAG_subroutine_type ]
!152 = metadata !{metadata !65, metadata !153}
!153 = metadata !{i32 786447, i32 0, metadata !"", i32 0, i32 0, i64 64, i64 64, i64 0, i32 64, metadata !154} ; [ DW_TAG_pointer_type ]
!154 = metadata !{i32 786485, null, metadata !"", null, i32 0, i64 0, i64 0, i64 0, i32 0, metadata !65} ; [ DW_TAG_volatile_type ]
!155 = metadata !{i32 786478, i32 0, metadata !65, metadata !"write", metadata !"write", metadata !"_ZNV11ap_int_baseILi18ELb0ELb1EE5writeERKS0_", metadata !66, i32 1533, metadata !156, i1 false, i1 false, i32 0, i32 0, null, i32 256, i1 false, null, null, i32 0, metadata !78, i32 1533} ; [ DW_TAG_subprogram ]
!156 = metadata !{i32 786453, i32 0, metadata !"", i32 0, i32 0, i64 0, i64 0, i64 0, i32 0, null, metadata !157, i32 0, i32 0} ; [ DW_TAG_subroutine_type ]
!157 = metadata !{null, metadata !153, metadata !158}
!158 = metadata !{i32 786448, null, null, null, i32 0, i64 0, i64 0, i64 0, i32 0, metadata !159} ; [ DW_TAG_reference_type ]
!159 = metadata !{i32 786470, null, metadata !"", null, i32 0, i64 0, i64 0, i64 0, i32 0, metadata !65} ; [ DW_TAG_const_type ]
!160 = metadata !{i32 786478, i32 0, metadata !65, metadata !"operator=", metadata !"operator=", metadata !"_ZNV11ap_int_baseILi18ELb0ELb1EEaSERVKS0_", metadata !66, i32 1545, metadata !161, i1 false, i1 false, i32 0, i32 0, null, i32 256, i1 false, null, null, i32 0, metadata !78, i32 1545} ; [ DW_TAG_subprogram ]
!161 = metadata !{i32 786453, i32 0, metadata !"", i32 0, i32 0, i64 0, i64 0, i64 0, i32 0, null, metadata !162, i32 0, i32 0} ; [ DW_TAG_subroutine_type ]
!162 = metadata !{null, metadata !153, metadata !163}
!163 = metadata !{i32 786448, null, null, null, i32 0, i64 0, i64 0, i64 0, i32 0, metadata !164} ; [ DW_TAG_reference_type ]
!164 = metadata !{i32 786470, null, metadata !"", null, i32 0, i64 0, i64 0, i64 0, i32 0, metadata !154} ; [ DW_TAG_const_type ]
!165 = metadata !{i32 786478, i32 0, metadata !65, metadata !"operator=", metadata !"operator=", metadata !"_ZNV11ap_int_baseILi18ELb0ELb1EEaSERKS0_", metadata !66, i32 1554, metadata !156, i1 false, i1 false, i32 0, i32 0, null, i32 256, i1 false, null, null, i32 0, metadata !78, i32 1554} ; [ DW_TAG_subprogram ]
!166 = metadata !{i32 786478, i32 0, metadata !65, metadata !"operator=", metadata !"operator=", metadata !"_ZN11ap_int_baseILi18ELb0ELb1EEaSERVKS0_", metadata !66, i32 1577, metadata !167, i1 false, i1 false, i32 0, i32 0, null, i32 256, i1 false, null, null, i32 0, metadata !78, i32 1577} ; [ DW_TAG_subprogram ]
!167 = metadata !{i32 786453, i32 0, metadata !"", i32 0, i32 0, i64 0, i64 0, i64 0, i32 0, null, metadata !168, i32 0, i32 0} ; [ DW_TAG_subroutine_type ]
!168 = metadata !{metadata !169, metadata !88, metadata !163}
!169 = metadata !{i32 786448, null, null, null, i32 0, i64 0, i64 0, i64 0, i32 0, metadata !65} ; [ DW_TAG_reference_type ]
!170 = metadata !{i32 786478, i32 0, metadata !65, metadata !"operator=", metadata !"operator=", metadata !"_ZN11ap_int_baseILi18ELb0ELb1EEaSERKS0_", metadata !66, i32 1582, metadata !171, i1 false, i1 false, i32 0, i32 0, null, i32 256, i1 false, null, null, i32 0, metadata !78, i32 1582} ; [ DW_TAG_subprogram ]
!171 = metadata !{i32 786453, i32 0, metadata !"", i32 0, i32 0, i64 0, i64 0, i64 0, i32 0, null, metadata !172, i32 0, i32 0} ; [ DW_TAG_subroutine_type ]
!172 = metadata !{metadata !169, metadata !88, metadata !158}
!173 = metadata !{i32 786478, i32 0, metadata !65, metadata !"operator=", metadata !"operator=", metadata !"_ZN11ap_int_baseILi18ELb0ELb1EEaSEPKc", metadata !66, i32 1586, metadata !174, i1 false, i1 false, i32 0, i32 0, null, i32 256, i1 false, null, null, i32 0, metadata !78, i32 1586} ; [ DW_TAG_subprogram ]
!174 = metadata !{i32 786453, i32 0, metadata !"", i32 0, i32 0, i64 0, i64 0, i64 0, i32 0, null, metadata !175, i32 0, i32 0} ; [ DW_TAG_subroutine_type ]
!175 = metadata !{metadata !169, metadata !88, metadata !144}
!176 = metadata !{i32 786478, i32 0, metadata !65, metadata !"set", metadata !"set", metadata !"_ZN11ap_int_baseILi18ELb0ELb1EE3setEPKca", metadata !66, i32 1594, metadata !177, i1 false, i1 false, i32 0, i32 0, null, i32 256, i1 false, null, null, i32 0, metadata !78, i32 1594} ; [ DW_TAG_subprogram ]
!177 = metadata !{i32 786453, i32 0, metadata !"", i32 0, i32 0, i64 0, i64 0, i64 0, i32 0, null, metadata !178, i32 0, i32 0} ; [ DW_TAG_subroutine_type ]
!178 = metadata !{metadata !169, metadata !88, metadata !144, metadata !95}
!179 = metadata !{i32 786478, i32 0, metadata !65, metadata !"operator=", metadata !"operator=", metadata !"_ZN11ap_int_baseILi18ELb0ELb1EEaSEa", metadata !66, i32 1608, metadata !180, i1 false, i1 false, i32 0, i32 0, null, i32 256, i1 false, null, null, i32 0, metadata !78, i32 1608} ; [ DW_TAG_subprogram ]
!180 = metadata !{i32 786453, i32 0, metadata !"", i32 0, i32 0, i64 0, i64 0, i64 0, i32 0, null, metadata !181, i32 0, i32 0} ; [ DW_TAG_subroutine_type ]
!181 = metadata !{metadata !169, metadata !88, metadata !95}
!182 = metadata !{i32 786478, i32 0, metadata !65, metadata !"operator=", metadata !"operator=", metadata !"_ZN11ap_int_baseILi18ELb0ELb1EEaSEh", metadata !66, i32 1609, metadata !183, i1 false, i1 false, i32 0, i32 0, null, i32 256, i1 false, null, null, i32 0, metadata !78, i32 1609} ; [ DW_TAG_subprogram ]
!183 = metadata !{i32 786453, i32 0, metadata !"", i32 0, i32 0, i64 0, i64 0, i64 0, i32 0, null, metadata !184, i32 0, i32 0} ; [ DW_TAG_subroutine_type ]
!184 = metadata !{metadata !169, metadata !88, metadata !99}
!185 = metadata !{i32 786478, i32 0, metadata !65, metadata !"operator=", metadata !"operator=", metadata !"_ZN11ap_int_baseILi18ELb0ELb1EEaSEs", metadata !66, i32 1610, metadata !186, i1 false, i1 false, i32 0, i32 0, null, i32 256, i1 false, null, null, i32 0, metadata !78, i32 1610} ; [ DW_TAG_subprogram ]
!186 = metadata !{i32 786453, i32 0, metadata !"", i32 0, i32 0, i64 0, i64 0, i64 0, i32 0, null, metadata !187, i32 0, i32 0} ; [ DW_TAG_subroutine_type ]
!187 = metadata !{metadata !169, metadata !88, metadata !103}
!188 = metadata !{i32 786478, i32 0, metadata !65, metadata !"operator=", metadata !"operator=", metadata !"_ZN11ap_int_baseILi18ELb0ELb1EEaSEt", metadata !66, i32 1611, metadata !189, i1 false, i1 false, i32 0, i32 0, null, i32 256, i1 false, null, null, i32 0, metadata !78, i32 1611} ; [ DW_TAG_subprogram ]
!189 = metadata !{i32 786453, i32 0, metadata !"", i32 0, i32 0, i64 0, i64 0, i64 0, i32 0, null, metadata !190, i32 0, i32 0} ; [ DW_TAG_subroutine_type ]
!190 = metadata !{metadata !169, metadata !88, metadata !107}
!191 = metadata !{i32 786478, i32 0, metadata !65, metadata !"operator=", metadata !"operator=", metadata !"_ZN11ap_int_baseILi18ELb0ELb1EEaSEi", metadata !66, i32 1612, metadata !192, i1 false, i1 false, i32 0, i32 0, null, i32 256, i1 false, null, null, i32 0, metadata !78, i32 1612} ; [ DW_TAG_subprogram ]
!192 = metadata !{i32 786453, i32 0, metadata !"", i32 0, i32 0, i64 0, i64 0, i64 0, i32 0, null, metadata !193, i32 0, i32 0} ; [ DW_TAG_subroutine_type ]
!193 = metadata !{metadata !169, metadata !88, metadata !82}
!194 = metadata !{i32 786478, i32 0, metadata !65, metadata !"operator=", metadata !"operator=", metadata !"_ZN11ap_int_baseILi18ELb0ELb1EEaSEj", metadata !66, i32 1613, metadata !195, i1 false, i1 false, i32 0, i32 0, null, i32 256, i1 false, null, null, i32 0, metadata !78, i32 1613} ; [ DW_TAG_subprogram ]
!195 = metadata !{i32 786453, i32 0, metadata !"", i32 0, i32 0, i64 0, i64 0, i64 0, i32 0, null, metadata !196, i32 0, i32 0} ; [ DW_TAG_subroutine_type ]
!196 = metadata !{metadata !169, metadata !88, metadata !114}
!197 = metadata !{i32 786478, i32 0, metadata !65, metadata !"operator=", metadata !"operator=", metadata !"_ZN11ap_int_baseILi18ELb0ELb1EEaSEx", metadata !66, i32 1614, metadata !198, i1 false, i1 false, i32 0, i32 0, null, i32 256, i1 false, null, null, i32 0, metadata !78, i32 1614} ; [ DW_TAG_subprogram ]
!198 = metadata !{i32 786453, i32 0, metadata !"", i32 0, i32 0, i64 0, i64 0, i64 0, i32 0, null, metadata !199, i32 0, i32 0} ; [ DW_TAG_subroutine_type ]
!199 = metadata !{metadata !169, metadata !88, metadata !126}
!200 = metadata !{i32 786478, i32 0, metadata !65, metadata !"operator=", metadata !"operator=", metadata !"_ZN11ap_int_baseILi18ELb0ELb1EEaSEy", metadata !66, i32 1615, metadata !201, i1 false, i1 false, i32 0, i32 0, null, i32 256, i1 false, null, null, i32 0, metadata !78, i32 1615} ; [ DW_TAG_subprogram ]
!201 = metadata !{i32 786453, i32 0, metadata !"", i32 0, i32 0, i64 0, i64 0, i64 0, i32 0, null, metadata !202, i32 0, i32 0} ; [ DW_TAG_subroutine_type ]
!202 = metadata !{metadata !169, metadata !88, metadata !131}
!203 = metadata !{i32 786478, i32 0, metadata !65, metadata !"operator unsigned int", metadata !"operator unsigned int", metadata !"_ZNK11ap_int_baseILi18ELb0ELb1EEcvjEv", metadata !66, i32 1653, metadata !204, i1 false, i1 false, i32 0, i32 0, null, i32 256, i1 false, null, null, i32 0, metadata !78, i32 1653} ; [ DW_TAG_subprogram ]
!204 = metadata !{i32 786453, i32 0, metadata !"", i32 0, i32 0, i64 0, i64 0, i64 0, i32 0, null, metadata !205, i32 0, i32 0} ; [ DW_TAG_subroutine_type ]
!205 = metadata !{metadata !206, metadata !212}
!206 = metadata !{i32 786454, metadata !65, metadata !"RetType", metadata !66, i32 1402, i64 0, i64 0, i64 0, i32 0, metadata !207} ; [ DW_TAG_typedef ]
!207 = metadata !{i32 786454, metadata !208, metadata !"Type", metadata !66, i32 1382, i64 0, i64 0, i64 0, i32 0, metadata !114} ; [ DW_TAG_typedef ]
!208 = metadata !{i32 786434, null, metadata !"retval<3, false>", metadata !66, i32 1381, i64 8, i64 8, i32 0, i32 0, null, metadata !209, i32 0, null, metadata !210} ; [ DW_TAG_class_type ]
!209 = metadata !{i32 0}
!210 = metadata !{metadata !211, metadata !83}
!211 = metadata !{i32 786480, null, metadata !"_AP_N", metadata !82, i64 3, null, i32 0, i32 0} ; [ DW_TAG_template_value_parameter ]
!212 = metadata !{i32 786447, i32 0, metadata !"", i32 0, i32 0, i64 64, i64 64, i64 0, i32 64, metadata !159} ; [ DW_TAG_pointer_type ]
!213 = metadata !{i32 786478, i32 0, metadata !65, metadata !"to_bool", metadata !"to_bool", metadata !"_ZNK11ap_int_baseILi18ELb0ELb1EE7to_boolEv", metadata !66, i32 1659, metadata !214, i1 false, i1 false, i32 0, i32 0, null, i32 256, i1 false, null, null, i32 0, metadata !78, i32 1659} ; [ DW_TAG_subprogram ]
!214 = metadata !{i32 786453, i32 0, metadata !"", i32 0, i32 0, i64 0, i64 0, i64 0, i32 0, null, metadata !215, i32 0, i32 0} ; [ DW_TAG_subroutine_type ]
!215 = metadata !{metadata !84, metadata !212}
!216 = metadata !{i32 786478, i32 0, metadata !65, metadata !"to_uchar", metadata !"to_uchar", metadata !"_ZNK11ap_int_baseILi18ELb0ELb1EE8to_ucharEv", metadata !66, i32 1660, metadata !217, i1 false, i1 false, i32 0, i32 0, null, i32 256, i1 false, null, null, i32 0, metadata !78, i32 1660} ; [ DW_TAG_subprogram ]
!217 = metadata !{i32 786453, i32 0, metadata !"", i32 0, i32 0, i64 0, i64 0, i64 0, i32 0, null, metadata !218, i32 0, i32 0} ; [ DW_TAG_subroutine_type ]
!218 = metadata !{metadata !99, metadata !212}
!219 = metadata !{i32 786478, i32 0, metadata !65, metadata !"to_char", metadata !"to_char", metadata !"_ZNK11ap_int_baseILi18ELb0ELb1EE7to_charEv", metadata !66, i32 1661, metadata !220, i1 false, i1 false, i32 0, i32 0, null, i32 256, i1 false, null, null, i32 0, metadata !78, i32 1661} ; [ DW_TAG_subprogram ]
!220 = metadata !{i32 786453, i32 0, metadata !"", i32 0, i32 0, i64 0, i64 0, i64 0, i32 0, null, metadata !221, i32 0, i32 0} ; [ DW_TAG_subroutine_type ]
!221 = metadata !{metadata !95, metadata !212}
!222 = metadata !{i32 786478, i32 0, metadata !65, metadata !"to_ushort", metadata !"to_ushort", metadata !"_ZNK11ap_int_baseILi18ELb0ELb1EE9to_ushortEv", metadata !66, i32 1662, metadata !223, i1 false, i1 false, i32 0, i32 0, null, i32 256, i1 false, null, null, i32 0, metadata !78, i32 1662} ; [ DW_TAG_subprogram ]
!223 = metadata !{i32 786453, i32 0, metadata !"", i32 0, i32 0, i64 0, i64 0, i64 0, i32 0, null, metadata !224, i32 0, i32 0} ; [ DW_TAG_subroutine_type ]
!224 = metadata !{metadata !107, metadata !212}
!225 = metadata !{i32 786478, i32 0, metadata !65, metadata !"to_short", metadata !"to_short", metadata !"_ZNK11ap_int_baseILi18ELb0ELb1EE8to_shortEv", metadata !66, i32 1663, metadata !226, i1 false, i1 false, i32 0, i32 0, null, i32 256, i1 false, null, null, i32 0, metadata !78, i32 1663} ; [ DW_TAG_subprogram ]
!226 = metadata !{i32 786453, i32 0, metadata !"", i32 0, i32 0, i64 0, i64 0, i64 0, i32 0, null, metadata !227, i32 0, i32 0} ; [ DW_TAG_subroutine_type ]
!227 = metadata !{metadata !103, metadata !212}
!228 = metadata !{i32 786478, i32 0, metadata !65, metadata !"to_int", metadata !"to_int", metadata !"_ZNK11ap_int_baseILi18ELb0ELb1EE6to_intEv", metadata !66, i32 1664, metadata !229, i1 false, i1 false, i32 0, i32 0, null, i32 256, i1 false, null, null, i32 0, metadata !78, i32 1664} ; [ DW_TAG_subprogram ]
!229 = metadata !{i32 786453, i32 0, metadata !"", i32 0, i32 0, i64 0, i64 0, i64 0, i32 0, null, metadata !230, i32 0, i32 0} ; [ DW_TAG_subroutine_type ]
!230 = metadata !{metadata !82, metadata !212}
!231 = metadata !{i32 786478, i32 0, metadata !65, metadata !"to_uint", metadata !"to_uint", metadata !"_ZNK11ap_int_baseILi18ELb0ELb1EE7to_uintEv", metadata !66, i32 1665, metadata !232, i1 false, i1 false, i32 0, i32 0, null, i32 256, i1 false, null, null, i32 0, metadata !78, i32 1665} ; [ DW_TAG_subprogram ]
!232 = metadata !{i32 786453, i32 0, metadata !"", i32 0, i32 0, i64 0, i64 0, i64 0, i32 0, null, metadata !233, i32 0, i32 0} ; [ DW_TAG_subroutine_type ]
!233 = metadata !{metadata !114, metadata !212}
!234 = metadata !{i32 786478, i32 0, metadata !65, metadata !"to_long", metadata !"to_long", metadata !"_ZNK11ap_int_baseILi18ELb0ELb1EE7to_longEv", metadata !66, i32 1666, metadata !235, i1 false, i1 false, i32 0, i32 0, null, i32 256, i1 false, null, null, i32 0, metadata !78, i32 1666} ; [ DW_TAG_subprogram ]
!235 = metadata !{i32 786453, i32 0, metadata !"", i32 0, i32 0, i64 0, i64 0, i64 0, i32 0, null, metadata !236, i32 0, i32 0} ; [ DW_TAG_subroutine_type ]
!236 = metadata !{metadata !118, metadata !212}
!237 = metadata !{i32 786478, i32 0, metadata !65, metadata !"to_ulong", metadata !"to_ulong", metadata !"_ZNK11ap_int_baseILi18ELb0ELb1EE8to_ulongEv", metadata !66, i32 1667, metadata !238, i1 false, i1 false, i32 0, i32 0, null, i32 256, i1 false, null, null, i32 0, metadata !78, i32 1667} ; [ DW_TAG_subprogram ]
!238 = metadata !{i32 786453, i32 0, metadata !"", i32 0, i32 0, i64 0, i64 0, i64 0, i32 0, null, metadata !239, i32 0, i32 0} ; [ DW_TAG_subroutine_type ]
!239 = metadata !{metadata !122, metadata !212}
!240 = metadata !{i32 786478, i32 0, metadata !65, metadata !"to_int64", metadata !"to_int64", metadata !"_ZNK11ap_int_baseILi18ELb0ELb1EE8to_int64Ev", metadata !66, i32 1668, metadata !241, i1 false, i1 false, i32 0, i32 0, null, i32 256, i1 false, null, null, i32 0, metadata !78, i32 1668} ; [ DW_TAG_subprogram ]
!241 = metadata !{i32 786453, i32 0, metadata !"", i32 0, i32 0, i64 0, i64 0, i64 0, i32 0, null, metadata !242, i32 0, i32 0} ; [ DW_TAG_subroutine_type ]
!242 = metadata !{metadata !126, metadata !212}
!243 = metadata !{i32 786478, i32 0, metadata !65, metadata !"to_uint64", metadata !"to_uint64", metadata !"_ZNK11ap_int_baseILi18ELb0ELb1EE9to_uint64Ev", metadata !66, i32 1669, metadata !244, i1 false, i1 false, i32 0, i32 0, null, i32 256, i1 false, null, null, i32 0, metadata !78, i32 1669} ; [ DW_TAG_subprogram ]
!244 = metadata !{i32 786453, i32 0, metadata !"", i32 0, i32 0, i64 0, i64 0, i64 0, i32 0, null, metadata !245, i32 0, i32 0} ; [ DW_TAG_subroutine_type ]
!245 = metadata !{metadata !131, metadata !212}
!246 = metadata !{i32 786478, i32 0, metadata !65, metadata !"to_double", metadata !"to_double", metadata !"_ZNK11ap_int_baseILi18ELb0ELb1EE9to_doubleEv", metadata !66, i32 1670, metadata !247, i1 false, i1 false, i32 0, i32 0, null, i32 256, i1 false, null, null, i32 0, metadata !78, i32 1670} ; [ DW_TAG_subprogram ]
!247 = metadata !{i32 786453, i32 0, metadata !"", i32 0, i32 0, i64 0, i64 0, i64 0, i32 0, null, metadata !248, i32 0, i32 0} ; [ DW_TAG_subroutine_type ]
!248 = metadata !{metadata !140, metadata !212}
!249 = metadata !{i32 786478, i32 0, metadata !65, metadata !"length", metadata !"length", metadata !"_ZNK11ap_int_baseILi18ELb0ELb1EE6lengthEv", metadata !66, i32 1684, metadata !229, i1 false, i1 false, i32 0, i32 0, null, i32 256, i1 false, null, null, i32 0, metadata !78, i32 1684} ; [ DW_TAG_subprogram ]
!250 = metadata !{i32 786478, i32 0, metadata !65, metadata !"length", metadata !"length", metadata !"_ZNVK11ap_int_baseILi18ELb0ELb1EE6lengthEv", metadata !66, i32 1685, metadata !251, i1 false, i1 false, i32 0, i32 0, null, i32 256, i1 false, null, null, i32 0, metadata !78, i32 1685} ; [ DW_TAG_subprogram ]
!251 = metadata !{i32 786453, i32 0, metadata !"", i32 0, i32 0, i64 0, i64 0, i64 0, i32 0, null, metadata !252, i32 0, i32 0} ; [ DW_TAG_subroutine_type ]
!252 = metadata !{metadata !82, metadata !253}
!253 = metadata !{i32 786447, i32 0, metadata !"", i32 0, i32 0, i64 64, i64 64, i64 0, i32 64, metadata !164} ; [ DW_TAG_pointer_type ]
!254 = metadata !{i32 786478, i32 0, metadata !65, metadata !"reverse", metadata !"reverse", metadata !"_ZN11ap_int_baseILi18ELb0ELb1EE7reverseEv", metadata !66, i32 1690, metadata !255, i1 false, i1 false, i32 0, i32 0, null, i32 256, i1 false, null, null, i32 0, metadata !78, i32 1690} ; [ DW_TAG_subprogram ]
!255 = metadata !{i32 786453, i32 0, metadata !"", i32 0, i32 0, i64 0, i64 0, i64 0, i32 0, null, metadata !256, i32 0, i32 0} ; [ DW_TAG_subroutine_type ]
!256 = metadata !{metadata !169, metadata !88}
!257 = metadata !{i32 786478, i32 0, metadata !65, metadata !"iszero", metadata !"iszero", metadata !"_ZNK11ap_int_baseILi18ELb0ELb1EE6iszeroEv", metadata !66, i32 1696, metadata !214, i1 false, i1 false, i32 0, i32 0, null, i32 256, i1 false, null, null, i32 0, metadata !78, i32 1696} ; [ DW_TAG_subprogram ]
!258 = metadata !{i32 786478, i32 0, metadata !65, metadata !"is_zero", metadata !"is_zero", metadata !"_ZNK11ap_int_baseILi18ELb0ELb1EE7is_zeroEv", metadata !66, i32 1701, metadata !214, i1 false, i1 false, i32 0, i32 0, null, i32 256, i1 false, null, null, i32 0, metadata !78, i32 1701} ; [ DW_TAG_subprogram ]
!259 = metadata !{i32 786478, i32 0, metadata !65, metadata !"sign", metadata !"sign", metadata !"_ZNK11ap_int_baseILi18ELb0ELb1EE4signEv", metadata !66, i32 1706, metadata !214, i1 false, i1 false, i32 0, i32 0, null, i32 256, i1 false, null, null, i32 0, metadata !78, i32 1706} ; [ DW_TAG_subprogram ]
!260 = metadata !{i32 786478, i32 0, metadata !65, metadata !"clear", metadata !"clear", metadata !"_ZN11ap_int_baseILi18ELb0ELb1EE5clearEi", metadata !66, i32 1714, metadata !109, i1 false, i1 false, i32 0, i32 0, null, i32 256, i1 false, null, null, i32 0, metadata !78, i32 1714} ; [ DW_TAG_subprogram ]
!261 = metadata !{i32 786478, i32 0, metadata !65, metadata !"invert", metadata !"invert", metadata !"_ZN11ap_int_baseILi18ELb0ELb1EE6invertEi", metadata !66, i32 1720, metadata !109, i1 false, i1 false, i32 0, i32 0, null, i32 256, i1 false, null, null, i32 0, metadata !78, i32 1720} ; [ DW_TAG_subprogram ]
!262 = metadata !{i32 786478, i32 0, metadata !65, metadata !"test", metadata !"test", metadata !"_ZNK11ap_int_baseILi18ELb0ELb1EE4testEi", metadata !66, i32 1728, metadata !263, i1 false, i1 false, i32 0, i32 0, null, i32 256, i1 false, null, null, i32 0, metadata !78, i32 1728} ; [ DW_TAG_subprogram ]
!263 = metadata !{i32 786453, i32 0, metadata !"", i32 0, i32 0, i64 0, i64 0, i64 0, i32 0, null, metadata !264, i32 0, i32 0} ; [ DW_TAG_subroutine_type ]
!264 = metadata !{metadata !84, metadata !212, metadata !82}
!265 = metadata !{i32 786478, i32 0, metadata !65, metadata !"set", metadata !"set", metadata !"_ZN11ap_int_baseILi18ELb0ELb1EE3setEi", metadata !66, i32 1734, metadata !109, i1 false, i1 false, i32 0, i32 0, null, i32 256, i1 false, null, null, i32 0, metadata !78, i32 1734} ; [ DW_TAG_subprogram ]
!266 = metadata !{i32 786478, i32 0, metadata !65, metadata !"set", metadata !"set", metadata !"_ZN11ap_int_baseILi18ELb0ELb1EE3setEib", metadata !66, i32 1740, metadata !267, i1 false, i1 false, i32 0, i32 0, null, i32 256, i1 false, null, null, i32 0, metadata !78, i32 1740} ; [ DW_TAG_subprogram ]
!267 = metadata !{i32 786453, i32 0, metadata !"", i32 0, i32 0, i64 0, i64 0, i64 0, i32 0, null, metadata !268, i32 0, i32 0} ; [ DW_TAG_subroutine_type ]
!268 = metadata !{null, metadata !88, metadata !82, metadata !84}
!269 = metadata !{i32 786478, i32 0, metadata !65, metadata !"lrotate", metadata !"lrotate", metadata !"_ZN11ap_int_baseILi18ELb0ELb1EE7lrotateEi", metadata !66, i32 1747, metadata !109, i1 false, i1 false, i32 0, i32 0, null, i32 256, i1 false, null, null, i32 0, metadata !78, i32 1747} ; [ DW_TAG_subprogram ]
!270 = metadata !{i32 786478, i32 0, metadata !65, metadata !"rrotate", metadata !"rrotate", metadata !"_ZN11ap_int_baseILi18ELb0ELb1EE7rrotateEi", metadata !66, i32 1756, metadata !109, i1 false, i1 false, i32 0, i32 0, null, i32 256, i1 false, null, null, i32 0, metadata !78, i32 1756} ; [ DW_TAG_subprogram ]
!271 = metadata !{i32 786478, i32 0, metadata !65, metadata !"set_bit", metadata !"set_bit", metadata !"_ZN11ap_int_baseILi18ELb0ELb1EE7set_bitEib", metadata !66, i32 1764, metadata !267, i1 false, i1 false, i32 0, i32 0, null, i32 256, i1 false, null, null, i32 0, metadata !78, i32 1764} ; [ DW_TAG_subprogram ]
!272 = metadata !{i32 786478, i32 0, metadata !65, metadata !"get_bit", metadata !"get_bit", metadata !"_ZNK11ap_int_baseILi18ELb0ELb1EE7get_bitEi", metadata !66, i32 1769, metadata !263, i1 false, i1 false, i32 0, i32 0, null, i32 256, i1 false, null, null, i32 0, metadata !78, i32 1769} ; [ DW_TAG_subprogram ]
!273 = metadata !{i32 786478, i32 0, metadata !65, metadata !"b_not", metadata !"b_not", metadata !"_ZN11ap_int_baseILi18ELb0ELb1EE5b_notEv", metadata !66, i32 1774, metadata !86, i1 false, i1 false, i32 0, i32 0, null, i32 256, i1 false, null, null, i32 0, metadata !78, i32 1774} ; [ DW_TAG_subprogram ]
!274 = metadata !{i32 786478, i32 0, metadata !65, metadata !"countLeadingZeros", metadata !"countLeadingZeros", metadata !"_ZN11ap_int_baseILi18ELb0ELb1EE17countLeadingZerosEv", metadata !66, i32 1781, metadata !275, i1 false, i1 false, i32 0, i32 0, null, i32 256, i1 false, null, null, i32 0, metadata !78, i32 1781} ; [ DW_TAG_subprogram ]
!275 = metadata !{i32 786453, i32 0, metadata !"", i32 0, i32 0, i64 0, i64 0, i64 0, i32 0, null, metadata !276, i32 0, i32 0} ; [ DW_TAG_subroutine_type ]
!276 = metadata !{metadata !82, metadata !88}
!277 = metadata !{i32 786478, i32 0, metadata !65, metadata !"operator++", metadata !"operator++", metadata !"_ZN11ap_int_baseILi18ELb0ELb1EEppEv", metadata !66, i32 1838, metadata !255, i1 false, i1 false, i32 0, i32 0, null, i32 256, i1 false, null, null, i32 0, metadata !78, i32 1838} ; [ DW_TAG_subprogram ]
!278 = metadata !{i32 786478, i32 0, metadata !65, metadata !"operator--", metadata !"operator--", metadata !"_ZN11ap_int_baseILi18ELb0ELb1EEmmEv", metadata !66, i32 1842, metadata !255, i1 false, i1 false, i32 0, i32 0, null, i32 256, i1 false, null, null, i32 0, metadata !78, i32 1842} ; [ DW_TAG_subprogram ]
!279 = metadata !{i32 786478, i32 0, metadata !65, metadata !"operator++", metadata !"operator++", metadata !"_ZN11ap_int_baseILi18ELb0ELb1EEppEi", metadata !66, i32 1850, metadata !280, i1 false, i1 false, i32 0, i32 0, null, i32 256, i1 false, null, null, i32 0, metadata !78, i32 1850} ; [ DW_TAG_subprogram ]
!280 = metadata !{i32 786453, i32 0, metadata !"", i32 0, i32 0, i64 0, i64 0, i64 0, i32 0, null, metadata !281, i32 0, i32 0} ; [ DW_TAG_subroutine_type ]
!281 = metadata !{metadata !159, metadata !88, metadata !82}
!282 = metadata !{i32 786478, i32 0, metadata !65, metadata !"operator--", metadata !"operator--", metadata !"_ZN11ap_int_baseILi18ELb0ELb1EEmmEi", metadata !66, i32 1855, metadata !280, i1 false, i1 false, i32 0, i32 0, null, i32 256, i1 false, null, null, i32 0, metadata !78, i32 1855} ; [ DW_TAG_subprogram ]
!283 = metadata !{i32 786478, i32 0, metadata !65, metadata !"operator+", metadata !"operator+", metadata !"_ZNK11ap_int_baseILi18ELb0ELb1EEpsEv", metadata !66, i32 1864, metadata !284, i1 false, i1 false, i32 0, i32 0, null, i32 256, i1 false, null, null, i32 0, metadata !78, i32 1864} ; [ DW_TAG_subprogram ]
!284 = metadata !{i32 786453, i32 0, metadata !"", i32 0, i32 0, i64 0, i64 0, i64 0, i32 0, null, metadata !285, i32 0, i32 0} ; [ DW_TAG_subroutine_type ]
!285 = metadata !{metadata !65, metadata !212}
!286 = metadata !{i32 786478, i32 0, metadata !65, metadata !"operator!", metadata !"operator!", metadata !"_ZNK11ap_int_baseILi18ELb0ELb1EEntEv", metadata !66, i32 1870, metadata !214, i1 false, i1 false, i32 0, i32 0, null, i32 256, i1 false, null, null, i32 0, metadata !78, i32 1870} ; [ DW_TAG_subprogram ]
!287 = metadata !{i32 786478, i32 0, metadata !65, metadata !"operator-", metadata !"operator-", metadata !"_ZNK11ap_int_baseILi18ELb0ELb1EEngEv", metadata !66, i32 1875, metadata !288, i1 false, i1 false, i32 0, i32 0, null, i32 256, i1 false, null, null, i32 0, metadata !78, i32 1875} ; [ DW_TAG_subprogram ]
!288 = metadata !{i32 786453, i32 0, metadata !"", i32 0, i32 0, i64 0, i64 0, i64 0, i32 0, null, metadata !289, i32 0, i32 0} ; [ DW_TAG_subroutine_type ]
!289 = metadata !{metadata !290, metadata !212}
!290 = metadata !{i32 786434, null, metadata !"ap_int_base<19, true, true>", metadata !66, i32 1397, i64 32, i64 32, i32 0, i32 0, null, metadata !291, i32 0, null, metadata !547} ; [ DW_TAG_class_type ]
!291 = metadata !{metadata !292, metadata !304, metadata !308, metadata !316, metadata !322, metadata !325, metadata !328, metadata !331, metadata !334, metadata !337, metadata !340, metadata !343, metadata !346, metadata !349, metadata !352, metadata !355, metadata !358, metadata !361, metadata !364, metadata !367, metadata !371, metadata !374, metadata !377, metadata !378, metadata !382, metadata !385, metadata !388, metadata !391, metadata !394, metadata !397, metadata !400, metadata !403, metadata !406, metadata !409, metadata !412, metadata !415, metadata !423, metadata !426, metadata !429, metadata !432, metadata !435, metadata !438, metadata !441, metadata !444, metadata !447, metadata !450, metadata !453, metadata !456, metadata !459, metadata !460, metadata !464, metadata !467, metadata !468, metadata !469, metadata !470, metadata !471, metadata !472, metadata !475, metadata !476, metadata !479, metadata !480, metadata !481, metadata !482, metadata !483, metadata !484, metadata !487, metadata !488, metadata !489, metadata !492, metadata !493, metadata !496, metadata !497, metadata !501, metadata !505, metadata !506, metadata !509, metadata !510, metadata !514, metadata !515, metadata !516, metadata !517, metadata !520, metadata !521, metadata !522, metadata !523, metadata !524, metadata !525, metadata !526, metadata !527, metadata !528, metadata !529, metadata !530, metadata !531, metadata !541, metadata !544}
!292 = metadata !{i32 786460, metadata !290, null, metadata !66, i32 0, i64 0, i64 0, i64 0, i32 0, metadata !293} ; [ DW_TAG_inheritance ]
!293 = metadata !{i32 786434, null, metadata !"ssdm_int<19 + 1024 * 0, true>", metadata !70, i32 21, i64 32, i64 32, i32 0, i32 0, null, metadata !294, i32 0, null, metadata !301} ; [ DW_TAG_class_type ]
!294 = metadata !{metadata !295, metadata !297}
!295 = metadata !{i32 786445, metadata !293, metadata !"V", metadata !70, i32 21, i64 19, i64 32, i64 0, i32 0, metadata !296} ; [ DW_TAG_member ]
!296 = metadata !{i32 786468, null, metadata !"int19", null, i32 0, i64 19, i64 32, i64 0, i32 0, i32 5} ; [ DW_TAG_base_type ]
!297 = metadata !{i32 786478, i32 0, metadata !293, metadata !"ssdm_int", metadata !"ssdm_int", metadata !"", metadata !70, i32 21, metadata !298, i1 false, i1 false, i32 0, i32 0, null, i32 256, i1 false, null, null, i32 0, metadata !78, i32 21} ; [ DW_TAG_subprogram ]
!298 = metadata !{i32 786453, i32 0, metadata !"", i32 0, i32 0, i64 0, i64 0, i64 0, i32 0, null, metadata !299, i32 0, i32 0} ; [ DW_TAG_subroutine_type ]
!299 = metadata !{null, metadata !300}
!300 = metadata !{i32 786447, i32 0, metadata !"", i32 0, i32 0, i64 64, i64 64, i64 0, i32 64, metadata !293} ; [ DW_TAG_pointer_type ]
!301 = metadata !{metadata !302, metadata !303}
!302 = metadata !{i32 786480, null, metadata !"_AP_N", metadata !82, i64 19, null, i32 0, i32 0} ; [ DW_TAG_template_value_parameter ]
!303 = metadata !{i32 786480, null, metadata !"_AP_S", metadata !84, i64 1, null, i32 0, i32 0} ; [ DW_TAG_template_value_parameter ]
!304 = metadata !{i32 786478, i32 0, metadata !290, metadata !"ap_int_base", metadata !"ap_int_base", metadata !"", metadata !66, i32 1438, metadata !305, i1 false, i1 false, i32 0, i32 0, null, i32 256, i1 false, null, null, i32 0, metadata !78, i32 1438} ; [ DW_TAG_subprogram ]
!305 = metadata !{i32 786453, i32 0, metadata !"", i32 0, i32 0, i64 0, i64 0, i64 0, i32 0, null, metadata !306, i32 0, i32 0} ; [ DW_TAG_subroutine_type ]
!306 = metadata !{null, metadata !307}
!307 = metadata !{i32 786447, i32 0, metadata !"", i32 0, i32 0, i64 64, i64 64, i64 0, i32 64, metadata !290} ; [ DW_TAG_pointer_type ]
!308 = metadata !{i32 786478, i32 0, metadata !290, metadata !"ap_int_base<19, true>", metadata !"ap_int_base<19, true>", metadata !"", metadata !66, i32 1450, metadata !309, i1 false, i1 false, i32 0, i32 0, null, i32 256, i1 false, null, metadata !313, i32 0, metadata !78, i32 1450} ; [ DW_TAG_subprogram ]
!309 = metadata !{i32 786453, i32 0, metadata !"", i32 0, i32 0, i64 0, i64 0, i64 0, i32 0, null, metadata !310, i32 0, i32 0} ; [ DW_TAG_subroutine_type ]
!310 = metadata !{null, metadata !307, metadata !311}
!311 = metadata !{i32 786448, null, null, null, i32 0, i64 0, i64 0, i64 0, i32 0, metadata !312} ; [ DW_TAG_reference_type ]
!312 = metadata !{i32 786470, null, metadata !"", null, i32 0, i64 0, i64 0, i64 0, i32 0, metadata !290} ; [ DW_TAG_const_type ]
!313 = metadata !{metadata !314, metadata !315}
!314 = metadata !{i32 786480, null, metadata !"_AP_W2", metadata !82, i64 19, null, i32 0, i32 0} ; [ DW_TAG_template_value_parameter ]
!315 = metadata !{i32 786480, null, metadata !"_AP_S2", metadata !84, i64 1, null, i32 0, i32 0} ; [ DW_TAG_template_value_parameter ]
!316 = metadata !{i32 786478, i32 0, metadata !290, metadata !"ap_int_base<19, true>", metadata !"ap_int_base<19, true>", metadata !"", metadata !66, i32 1453, metadata !317, i1 false, i1 false, i32 0, i32 0, null, i32 256, i1 false, null, metadata !313, i32 0, metadata !78, i32 1453} ; [ DW_TAG_subprogram ]
!317 = metadata !{i32 786453, i32 0, metadata !"", i32 0, i32 0, i64 0, i64 0, i64 0, i32 0, null, metadata !318, i32 0, i32 0} ; [ DW_TAG_subroutine_type ]
!318 = metadata !{null, metadata !307, metadata !319}
!319 = metadata !{i32 786448, null, null, null, i32 0, i64 0, i64 0, i64 0, i32 0, metadata !320} ; [ DW_TAG_reference_type ]
!320 = metadata !{i32 786470, null, metadata !"", null, i32 0, i64 0, i64 0, i64 0, i32 0, metadata !321} ; [ DW_TAG_const_type ]
!321 = metadata !{i32 786485, null, metadata !"", null, i32 0, i64 0, i64 0, i64 0, i32 0, metadata !290} ; [ DW_TAG_volatile_type ]
!322 = metadata !{i32 786478, i32 0, metadata !290, metadata !"ap_int_base", metadata !"ap_int_base", metadata !"", metadata !66, i32 1460, metadata !323, i1 false, i1 false, i32 0, i32 0, null, i32 384, i1 false, null, null, i32 0, metadata !78, i32 1460} ; [ DW_TAG_subprogram ]
!323 = metadata !{i32 786453, i32 0, metadata !"", i32 0, i32 0, i64 0, i64 0, i64 0, i32 0, null, metadata !324, i32 0, i32 0} ; [ DW_TAG_subroutine_type ]
!324 = metadata !{null, metadata !307, metadata !84}
!325 = metadata !{i32 786478, i32 0, metadata !290, metadata !"ap_int_base", metadata !"ap_int_base", metadata !"", metadata !66, i32 1461, metadata !326, i1 false, i1 false, i32 0, i32 0, null, i32 384, i1 false, null, null, i32 0, metadata !78, i32 1461} ; [ DW_TAG_subprogram ]
!326 = metadata !{i32 786453, i32 0, metadata !"", i32 0, i32 0, i64 0, i64 0, i64 0, i32 0, null, metadata !327, i32 0, i32 0} ; [ DW_TAG_subroutine_type ]
!327 = metadata !{null, metadata !307, metadata !95}
!328 = metadata !{i32 786478, i32 0, metadata !290, metadata !"ap_int_base", metadata !"ap_int_base", metadata !"", metadata !66, i32 1462, metadata !329, i1 false, i1 false, i32 0, i32 0, null, i32 384, i1 false, null, null, i32 0, metadata !78, i32 1462} ; [ DW_TAG_subprogram ]
!329 = metadata !{i32 786453, i32 0, metadata !"", i32 0, i32 0, i64 0, i64 0, i64 0, i32 0, null, metadata !330, i32 0, i32 0} ; [ DW_TAG_subroutine_type ]
!330 = metadata !{null, metadata !307, metadata !99}
!331 = metadata !{i32 786478, i32 0, metadata !290, metadata !"ap_int_base", metadata !"ap_int_base", metadata !"", metadata !66, i32 1463, metadata !332, i1 false, i1 false, i32 0, i32 0, null, i32 384, i1 false, null, null, i32 0, metadata !78, i32 1463} ; [ DW_TAG_subprogram ]
!332 = metadata !{i32 786453, i32 0, metadata !"", i32 0, i32 0, i64 0, i64 0, i64 0, i32 0, null, metadata !333, i32 0, i32 0} ; [ DW_TAG_subroutine_type ]
!333 = metadata !{null, metadata !307, metadata !103}
!334 = metadata !{i32 786478, i32 0, metadata !290, metadata !"ap_int_base", metadata !"ap_int_base", metadata !"", metadata !66, i32 1464, metadata !335, i1 false, i1 false, i32 0, i32 0, null, i32 384, i1 false, null, null, i32 0, metadata !78, i32 1464} ; [ DW_TAG_subprogram ]
!335 = metadata !{i32 786453, i32 0, metadata !"", i32 0, i32 0, i64 0, i64 0, i64 0, i32 0, null, metadata !336, i32 0, i32 0} ; [ DW_TAG_subroutine_type ]
!336 = metadata !{null, metadata !307, metadata !107}
!337 = metadata !{i32 786478, i32 0, metadata !290, metadata !"ap_int_base", metadata !"ap_int_base", metadata !"", metadata !66, i32 1465, metadata !338, i1 false, i1 false, i32 0, i32 0, null, i32 384, i1 false, null, null, i32 0, metadata !78, i32 1465} ; [ DW_TAG_subprogram ]
!338 = metadata !{i32 786453, i32 0, metadata !"", i32 0, i32 0, i64 0, i64 0, i64 0, i32 0, null, metadata !339, i32 0, i32 0} ; [ DW_TAG_subroutine_type ]
!339 = metadata !{null, metadata !307, metadata !82}
!340 = metadata !{i32 786478, i32 0, metadata !290, metadata !"ap_int_base", metadata !"ap_int_base", metadata !"", metadata !66, i32 1466, metadata !341, i1 false, i1 false, i32 0, i32 0, null, i32 384, i1 false, null, null, i32 0, metadata !78, i32 1466} ; [ DW_TAG_subprogram ]
!341 = metadata !{i32 786453, i32 0, metadata !"", i32 0, i32 0, i64 0, i64 0, i64 0, i32 0, null, metadata !342, i32 0, i32 0} ; [ DW_TAG_subroutine_type ]
!342 = metadata !{null, metadata !307, metadata !114}
!343 = metadata !{i32 786478, i32 0, metadata !290, metadata !"ap_int_base", metadata !"ap_int_base", metadata !"", metadata !66, i32 1467, metadata !344, i1 false, i1 false, i32 0, i32 0, null, i32 384, i1 false, null, null, i32 0, metadata !78, i32 1467} ; [ DW_TAG_subprogram ]
!344 = metadata !{i32 786453, i32 0, metadata !"", i32 0, i32 0, i64 0, i64 0, i64 0, i32 0, null, metadata !345, i32 0, i32 0} ; [ DW_TAG_subroutine_type ]
!345 = metadata !{null, metadata !307, metadata !118}
!346 = metadata !{i32 786478, i32 0, metadata !290, metadata !"ap_int_base", metadata !"ap_int_base", metadata !"", metadata !66, i32 1468, metadata !347, i1 false, i1 false, i32 0, i32 0, null, i32 384, i1 false, null, null, i32 0, metadata !78, i32 1468} ; [ DW_TAG_subprogram ]
!347 = metadata !{i32 786453, i32 0, metadata !"", i32 0, i32 0, i64 0, i64 0, i64 0, i32 0, null, metadata !348, i32 0, i32 0} ; [ DW_TAG_subroutine_type ]
!348 = metadata !{null, metadata !307, metadata !122}
!349 = metadata !{i32 786478, i32 0, metadata !290, metadata !"ap_int_base", metadata !"ap_int_base", metadata !"", metadata !66, i32 1469, metadata !350, i1 false, i1 false, i32 0, i32 0, null, i32 384, i1 false, null, null, i32 0, metadata !78, i32 1469} ; [ DW_TAG_subprogram ]
!350 = metadata !{i32 786453, i32 0, metadata !"", i32 0, i32 0, i64 0, i64 0, i64 0, i32 0, null, metadata !351, i32 0, i32 0} ; [ DW_TAG_subroutine_type ]
!351 = metadata !{null, metadata !307, metadata !126}
!352 = metadata !{i32 786478, i32 0, metadata !290, metadata !"ap_int_base", metadata !"ap_int_base", metadata !"", metadata !66, i32 1470, metadata !353, i1 false, i1 false, i32 0, i32 0, null, i32 384, i1 false, null, null, i32 0, metadata !78, i32 1470} ; [ DW_TAG_subprogram ]
!353 = metadata !{i32 786453, i32 0, metadata !"", i32 0, i32 0, i64 0, i64 0, i64 0, i32 0, null, metadata !354, i32 0, i32 0} ; [ DW_TAG_subroutine_type ]
!354 = metadata !{null, metadata !307, metadata !131}
!355 = metadata !{i32 786478, i32 0, metadata !290, metadata !"ap_int_base", metadata !"ap_int_base", metadata !"", metadata !66, i32 1471, metadata !356, i1 false, i1 false, i32 0, i32 0, null, i32 384, i1 false, null, null, i32 0, metadata !78, i32 1471} ; [ DW_TAG_subprogram ]
!356 = metadata !{i32 786453, i32 0, metadata !"", i32 0, i32 0, i64 0, i64 0, i64 0, i32 0, null, metadata !357, i32 0, i32 0} ; [ DW_TAG_subroutine_type ]
!357 = metadata !{null, metadata !307, metadata !136}
!358 = metadata !{i32 786478, i32 0, metadata !290, metadata !"ap_int_base", metadata !"ap_int_base", metadata !"", metadata !66, i32 1472, metadata !359, i1 false, i1 false, i32 0, i32 0, null, i32 384, i1 false, null, null, i32 0, metadata !78, i32 1472} ; [ DW_TAG_subprogram ]
!359 = metadata !{i32 786453, i32 0, metadata !"", i32 0, i32 0, i64 0, i64 0, i64 0, i32 0, null, metadata !360, i32 0, i32 0} ; [ DW_TAG_subroutine_type ]
!360 = metadata !{null, metadata !307, metadata !140}
!361 = metadata !{i32 786478, i32 0, metadata !290, metadata !"ap_int_base", metadata !"ap_int_base", metadata !"", metadata !66, i32 1499, metadata !362, i1 false, i1 false, i32 0, i32 0, null, i32 256, i1 false, null, null, i32 0, metadata !78, i32 1499} ; [ DW_TAG_subprogram ]
!362 = metadata !{i32 786453, i32 0, metadata !"", i32 0, i32 0, i64 0, i64 0, i64 0, i32 0, null, metadata !363, i32 0, i32 0} ; [ DW_TAG_subroutine_type ]
!363 = metadata !{null, metadata !307, metadata !144}
!364 = metadata !{i32 786478, i32 0, metadata !290, metadata !"ap_int_base", metadata !"ap_int_base", metadata !"", metadata !66, i32 1506, metadata !365, i1 false, i1 false, i32 0, i32 0, null, i32 256, i1 false, null, null, i32 0, metadata !78, i32 1506} ; [ DW_TAG_subprogram ]
!365 = metadata !{i32 786453, i32 0, metadata !"", i32 0, i32 0, i64 0, i64 0, i64 0, i32 0, null, metadata !366, i32 0, i32 0} ; [ DW_TAG_subroutine_type ]
!366 = metadata !{null, metadata !307, metadata !144, metadata !95}
!367 = metadata !{i32 786478, i32 0, metadata !290, metadata !"read", metadata !"read", metadata !"_ZNV11ap_int_baseILi19ELb1ELb1EE4readEv", metadata !66, i32 1527, metadata !368, i1 false, i1 false, i32 0, i32 0, null, i32 256, i1 false, null, null, i32 0, metadata !78, i32 1527} ; [ DW_TAG_subprogram ]
!368 = metadata !{i32 786453, i32 0, metadata !"", i32 0, i32 0, i64 0, i64 0, i64 0, i32 0, null, metadata !369, i32 0, i32 0} ; [ DW_TAG_subroutine_type ]
!369 = metadata !{metadata !290, metadata !370}
!370 = metadata !{i32 786447, i32 0, metadata !"", i32 0, i32 0, i64 64, i64 64, i64 0, i32 64, metadata !321} ; [ DW_TAG_pointer_type ]
!371 = metadata !{i32 786478, i32 0, metadata !290, metadata !"write", metadata !"write", metadata !"_ZNV11ap_int_baseILi19ELb1ELb1EE5writeERKS0_", metadata !66, i32 1533, metadata !372, i1 false, i1 false, i32 0, i32 0, null, i32 256, i1 false, null, null, i32 0, metadata !78, i32 1533} ; [ DW_TAG_subprogram ]
!372 = metadata !{i32 786453, i32 0, metadata !"", i32 0, i32 0, i64 0, i64 0, i64 0, i32 0, null, metadata !373, i32 0, i32 0} ; [ DW_TAG_subroutine_type ]
!373 = metadata !{null, metadata !370, metadata !311}
!374 = metadata !{i32 786478, i32 0, metadata !290, metadata !"operator=", metadata !"operator=", metadata !"_ZNV11ap_int_baseILi19ELb1ELb1EEaSERVKS0_", metadata !66, i32 1545, metadata !375, i1 false, i1 false, i32 0, i32 0, null, i32 256, i1 false, null, null, i32 0, metadata !78, i32 1545} ; [ DW_TAG_subprogram ]
!375 = metadata !{i32 786453, i32 0, metadata !"", i32 0, i32 0, i64 0, i64 0, i64 0, i32 0, null, metadata !376, i32 0, i32 0} ; [ DW_TAG_subroutine_type ]
!376 = metadata !{null, metadata !370, metadata !319}
!377 = metadata !{i32 786478, i32 0, metadata !290, metadata !"operator=", metadata !"operator=", metadata !"_ZNV11ap_int_baseILi19ELb1ELb1EEaSERKS0_", metadata !66, i32 1554, metadata !372, i1 false, i1 false, i32 0, i32 0, null, i32 256, i1 false, null, null, i32 0, metadata !78, i32 1554} ; [ DW_TAG_subprogram ]
!378 = metadata !{i32 786478, i32 0, metadata !290, metadata !"operator=", metadata !"operator=", metadata !"_ZN11ap_int_baseILi19ELb1ELb1EEaSERVKS0_", metadata !66, i32 1577, metadata !379, i1 false, i1 false, i32 0, i32 0, null, i32 256, i1 false, null, null, i32 0, metadata !78, i32 1577} ; [ DW_TAG_subprogram ]
!379 = metadata !{i32 786453, i32 0, metadata !"", i32 0, i32 0, i64 0, i64 0, i64 0, i32 0, null, metadata !380, i32 0, i32 0} ; [ DW_TAG_subroutine_type ]
!380 = metadata !{metadata !381, metadata !307, metadata !319}
!381 = metadata !{i32 786448, null, null, null, i32 0, i64 0, i64 0, i64 0, i32 0, metadata !290} ; [ DW_TAG_reference_type ]
!382 = metadata !{i32 786478, i32 0, metadata !290, metadata !"operator=", metadata !"operator=", metadata !"_ZN11ap_int_baseILi19ELb1ELb1EEaSERKS0_", metadata !66, i32 1582, metadata !383, i1 false, i1 false, i32 0, i32 0, null, i32 256, i1 false, null, null, i32 0, metadata !78, i32 1582} ; [ DW_TAG_subprogram ]
!383 = metadata !{i32 786453, i32 0, metadata !"", i32 0, i32 0, i64 0, i64 0, i64 0, i32 0, null, metadata !384, i32 0, i32 0} ; [ DW_TAG_subroutine_type ]
!384 = metadata !{metadata !381, metadata !307, metadata !311}
!385 = metadata !{i32 786478, i32 0, metadata !290, metadata !"operator=", metadata !"operator=", metadata !"_ZN11ap_int_baseILi19ELb1ELb1EEaSEPKc", metadata !66, i32 1586, metadata !386, i1 false, i1 false, i32 0, i32 0, null, i32 256, i1 false, null, null, i32 0, metadata !78, i32 1586} ; [ DW_TAG_subprogram ]
!386 = metadata !{i32 786453, i32 0, metadata !"", i32 0, i32 0, i64 0, i64 0, i64 0, i32 0, null, metadata !387, i32 0, i32 0} ; [ DW_TAG_subroutine_type ]
!387 = metadata !{metadata !381, metadata !307, metadata !144}
!388 = metadata !{i32 786478, i32 0, metadata !290, metadata !"set", metadata !"set", metadata !"_ZN11ap_int_baseILi19ELb1ELb1EE3setEPKca", metadata !66, i32 1594, metadata !389, i1 false, i1 false, i32 0, i32 0, null, i32 256, i1 false, null, null, i32 0, metadata !78, i32 1594} ; [ DW_TAG_subprogram ]
!389 = metadata !{i32 786453, i32 0, metadata !"", i32 0, i32 0, i64 0, i64 0, i64 0, i32 0, null, metadata !390, i32 0, i32 0} ; [ DW_TAG_subroutine_type ]
!390 = metadata !{metadata !381, metadata !307, metadata !144, metadata !95}
!391 = metadata !{i32 786478, i32 0, metadata !290, metadata !"operator=", metadata !"operator=", metadata !"_ZN11ap_int_baseILi19ELb1ELb1EEaSEa", metadata !66, i32 1608, metadata !392, i1 false, i1 false, i32 0, i32 0, null, i32 256, i1 false, null, null, i32 0, metadata !78, i32 1608} ; [ DW_TAG_subprogram ]
!392 = metadata !{i32 786453, i32 0, metadata !"", i32 0, i32 0, i64 0, i64 0, i64 0, i32 0, null, metadata !393, i32 0, i32 0} ; [ DW_TAG_subroutine_type ]
!393 = metadata !{metadata !381, metadata !307, metadata !95}
!394 = metadata !{i32 786478, i32 0, metadata !290, metadata !"operator=", metadata !"operator=", metadata !"_ZN11ap_int_baseILi19ELb1ELb1EEaSEh", metadata !66, i32 1609, metadata !395, i1 false, i1 false, i32 0, i32 0, null, i32 256, i1 false, null, null, i32 0, metadata !78, i32 1609} ; [ DW_TAG_subprogram ]
!395 = metadata !{i32 786453, i32 0, metadata !"", i32 0, i32 0, i64 0, i64 0, i64 0, i32 0, null, metadata !396, i32 0, i32 0} ; [ DW_TAG_subroutine_type ]
!396 = metadata !{metadata !381, metadata !307, metadata !99}
!397 = metadata !{i32 786478, i32 0, metadata !290, metadata !"operator=", metadata !"operator=", metadata !"_ZN11ap_int_baseILi19ELb1ELb1EEaSEs", metadata !66, i32 1610, metadata !398, i1 false, i1 false, i32 0, i32 0, null, i32 256, i1 false, null, null, i32 0, metadata !78, i32 1610} ; [ DW_TAG_subprogram ]
!398 = metadata !{i32 786453, i32 0, metadata !"", i32 0, i32 0, i64 0, i64 0, i64 0, i32 0, null, metadata !399, i32 0, i32 0} ; [ DW_TAG_subroutine_type ]
!399 = metadata !{metadata !381, metadata !307, metadata !103}
!400 = metadata !{i32 786478, i32 0, metadata !290, metadata !"operator=", metadata !"operator=", metadata !"_ZN11ap_int_baseILi19ELb1ELb1EEaSEt", metadata !66, i32 1611, metadata !401, i1 false, i1 false, i32 0, i32 0, null, i32 256, i1 false, null, null, i32 0, metadata !78, i32 1611} ; [ DW_TAG_subprogram ]
!401 = metadata !{i32 786453, i32 0, metadata !"", i32 0, i32 0, i64 0, i64 0, i64 0, i32 0, null, metadata !402, i32 0, i32 0} ; [ DW_TAG_subroutine_type ]
!402 = metadata !{metadata !381, metadata !307, metadata !107}
!403 = metadata !{i32 786478, i32 0, metadata !290, metadata !"operator=", metadata !"operator=", metadata !"_ZN11ap_int_baseILi19ELb1ELb1EEaSEi", metadata !66, i32 1612, metadata !404, i1 false, i1 false, i32 0, i32 0, null, i32 256, i1 false, null, null, i32 0, metadata !78, i32 1612} ; [ DW_TAG_subprogram ]
!404 = metadata !{i32 786453, i32 0, metadata !"", i32 0, i32 0, i64 0, i64 0, i64 0, i32 0, null, metadata !405, i32 0, i32 0} ; [ DW_TAG_subroutine_type ]
!405 = metadata !{metadata !381, metadata !307, metadata !82}
!406 = metadata !{i32 786478, i32 0, metadata !290, metadata !"operator=", metadata !"operator=", metadata !"_ZN11ap_int_baseILi19ELb1ELb1EEaSEj", metadata !66, i32 1613, metadata !407, i1 false, i1 false, i32 0, i32 0, null, i32 256, i1 false, null, null, i32 0, metadata !78, i32 1613} ; [ DW_TAG_subprogram ]
!407 = metadata !{i32 786453, i32 0, metadata !"", i32 0, i32 0, i64 0, i64 0, i64 0, i32 0, null, metadata !408, i32 0, i32 0} ; [ DW_TAG_subroutine_type ]
!408 = metadata !{metadata !381, metadata !307, metadata !114}
!409 = metadata !{i32 786478, i32 0, metadata !290, metadata !"operator=", metadata !"operator=", metadata !"_ZN11ap_int_baseILi19ELb1ELb1EEaSEx", metadata !66, i32 1614, metadata !410, i1 false, i1 false, i32 0, i32 0, null, i32 256, i1 false, null, null, i32 0, metadata !78, i32 1614} ; [ DW_TAG_subprogram ]
!410 = metadata !{i32 786453, i32 0, metadata !"", i32 0, i32 0, i64 0, i64 0, i64 0, i32 0, null, metadata !411, i32 0, i32 0} ; [ DW_TAG_subroutine_type ]
!411 = metadata !{metadata !381, metadata !307, metadata !126}
!412 = metadata !{i32 786478, i32 0, metadata !290, metadata !"operator=", metadata !"operator=", metadata !"_ZN11ap_int_baseILi19ELb1ELb1EEaSEy", metadata !66, i32 1615, metadata !413, i1 false, i1 false, i32 0, i32 0, null, i32 256, i1 false, null, null, i32 0, metadata !78, i32 1615} ; [ DW_TAG_subprogram ]
!413 = metadata !{i32 786453, i32 0, metadata !"", i32 0, i32 0, i64 0, i64 0, i64 0, i32 0, null, metadata !414, i32 0, i32 0} ; [ DW_TAG_subroutine_type ]
!414 = metadata !{metadata !381, metadata !307, metadata !131}
!415 = metadata !{i32 786478, i32 0, metadata !290, metadata !"operator int", metadata !"operator int", metadata !"_ZNK11ap_int_baseILi19ELb1ELb1EEcviEv", metadata !66, i32 1653, metadata !416, i1 false, i1 false, i32 0, i32 0, null, i32 256, i1 false, null, null, i32 0, metadata !78, i32 1653} ; [ DW_TAG_subprogram ]
!416 = metadata !{i32 786453, i32 0, metadata !"", i32 0, i32 0, i64 0, i64 0, i64 0, i32 0, null, metadata !417, i32 0, i32 0} ; [ DW_TAG_subroutine_type ]
!417 = metadata !{metadata !418, metadata !422}
!418 = metadata !{i32 786454, metadata !290, metadata !"RetType", metadata !66, i32 1402, i64 0, i64 0, i64 0, i32 0, metadata !419} ; [ DW_TAG_typedef ]
!419 = metadata !{i32 786454, metadata !420, metadata !"Type", metadata !66, i32 1379, i64 0, i64 0, i64 0, i32 0, metadata !82} ; [ DW_TAG_typedef ]
!420 = metadata !{i32 786434, null, metadata !"retval<3, true>", metadata !66, i32 1378, i64 8, i64 8, i32 0, i32 0, null, metadata !209, i32 0, null, metadata !421} ; [ DW_TAG_class_type ]
!421 = metadata !{metadata !211, metadata !303}
!422 = metadata !{i32 786447, i32 0, metadata !"", i32 0, i32 0, i64 64, i64 64, i64 0, i32 64, metadata !312} ; [ DW_TAG_pointer_type ]
!423 = metadata !{i32 786478, i32 0, metadata !290, metadata !"to_bool", metadata !"to_bool", metadata !"_ZNK11ap_int_baseILi19ELb1ELb1EE7to_boolEv", metadata !66, i32 1659, metadata !424, i1 false, i1 false, i32 0, i32 0, null, i32 256, i1 false, null, null, i32 0, metadata !78, i32 1659} ; [ DW_TAG_subprogram ]
!424 = metadata !{i32 786453, i32 0, metadata !"", i32 0, i32 0, i64 0, i64 0, i64 0, i32 0, null, metadata !425, i32 0, i32 0} ; [ DW_TAG_subroutine_type ]
!425 = metadata !{metadata !84, metadata !422}
!426 = metadata !{i32 786478, i32 0, metadata !290, metadata !"to_uchar", metadata !"to_uchar", metadata !"_ZNK11ap_int_baseILi19ELb1ELb1EE8to_ucharEv", metadata !66, i32 1660, metadata !427, i1 false, i1 false, i32 0, i32 0, null, i32 256, i1 false, null, null, i32 0, metadata !78, i32 1660} ; [ DW_TAG_subprogram ]
!427 = metadata !{i32 786453, i32 0, metadata !"", i32 0, i32 0, i64 0, i64 0, i64 0, i32 0, null, metadata !428, i32 0, i32 0} ; [ DW_TAG_subroutine_type ]
!428 = metadata !{metadata !99, metadata !422}
!429 = metadata !{i32 786478, i32 0, metadata !290, metadata !"to_char", metadata !"to_char", metadata !"_ZNK11ap_int_baseILi19ELb1ELb1EE7to_charEv", metadata !66, i32 1661, metadata !430, i1 false, i1 false, i32 0, i32 0, null, i32 256, i1 false, null, null, i32 0, metadata !78, i32 1661} ; [ DW_TAG_subprogram ]
!430 = metadata !{i32 786453, i32 0, metadata !"", i32 0, i32 0, i64 0, i64 0, i64 0, i32 0, null, metadata !431, i32 0, i32 0} ; [ DW_TAG_subroutine_type ]
!431 = metadata !{metadata !95, metadata !422}
!432 = metadata !{i32 786478, i32 0, metadata !290, metadata !"to_ushort", metadata !"to_ushort", metadata !"_ZNK11ap_int_baseILi19ELb1ELb1EE9to_ushortEv", metadata !66, i32 1662, metadata !433, i1 false, i1 false, i32 0, i32 0, null, i32 256, i1 false, null, null, i32 0, metadata !78, i32 1662} ; [ DW_TAG_subprogram ]
!433 = metadata !{i32 786453, i32 0, metadata !"", i32 0, i32 0, i64 0, i64 0, i64 0, i32 0, null, metadata !434, i32 0, i32 0} ; [ DW_TAG_subroutine_type ]
!434 = metadata !{metadata !107, metadata !422}
!435 = metadata !{i32 786478, i32 0, metadata !290, metadata !"to_short", metadata !"to_short", metadata !"_ZNK11ap_int_baseILi19ELb1ELb1EE8to_shortEv", metadata !66, i32 1663, metadata !436, i1 false, i1 false, i32 0, i32 0, null, i32 256, i1 false, null, null, i32 0, metadata !78, i32 1663} ; [ DW_TAG_subprogram ]
!436 = metadata !{i32 786453, i32 0, metadata !"", i32 0, i32 0, i64 0, i64 0, i64 0, i32 0, null, metadata !437, i32 0, i32 0} ; [ DW_TAG_subroutine_type ]
!437 = metadata !{metadata !103, metadata !422}
!438 = metadata !{i32 786478, i32 0, metadata !290, metadata !"to_int", metadata !"to_int", metadata !"_ZNK11ap_int_baseILi19ELb1ELb1EE6to_intEv", metadata !66, i32 1664, metadata !439, i1 false, i1 false, i32 0, i32 0, null, i32 256, i1 false, null, null, i32 0, metadata !78, i32 1664} ; [ DW_TAG_subprogram ]
!439 = metadata !{i32 786453, i32 0, metadata !"", i32 0, i32 0, i64 0, i64 0, i64 0, i32 0, null, metadata !440, i32 0, i32 0} ; [ DW_TAG_subroutine_type ]
!440 = metadata !{metadata !82, metadata !422}
!441 = metadata !{i32 786478, i32 0, metadata !290, metadata !"to_uint", metadata !"to_uint", metadata !"_ZNK11ap_int_baseILi19ELb1ELb1EE7to_uintEv", metadata !66, i32 1665, metadata !442, i1 false, i1 false, i32 0, i32 0, null, i32 256, i1 false, null, null, i32 0, metadata !78, i32 1665} ; [ DW_TAG_subprogram ]
!442 = metadata !{i32 786453, i32 0, metadata !"", i32 0, i32 0, i64 0, i64 0, i64 0, i32 0, null, metadata !443, i32 0, i32 0} ; [ DW_TAG_subroutine_type ]
!443 = metadata !{metadata !114, metadata !422}
!444 = metadata !{i32 786478, i32 0, metadata !290, metadata !"to_long", metadata !"to_long", metadata !"_ZNK11ap_int_baseILi19ELb1ELb1EE7to_longEv", metadata !66, i32 1666, metadata !445, i1 false, i1 false, i32 0, i32 0, null, i32 256, i1 false, null, null, i32 0, metadata !78, i32 1666} ; [ DW_TAG_subprogram ]
!445 = metadata !{i32 786453, i32 0, metadata !"", i32 0, i32 0, i64 0, i64 0, i64 0, i32 0, null, metadata !446, i32 0, i32 0} ; [ DW_TAG_subroutine_type ]
!446 = metadata !{metadata !118, metadata !422}
!447 = metadata !{i32 786478, i32 0, metadata !290, metadata !"to_ulong", metadata !"to_ulong", metadata !"_ZNK11ap_int_baseILi19ELb1ELb1EE8to_ulongEv", metadata !66, i32 1667, metadata !448, i1 false, i1 false, i32 0, i32 0, null, i32 256, i1 false, null, null, i32 0, metadata !78, i32 1667} ; [ DW_TAG_subprogram ]
!448 = metadata !{i32 786453, i32 0, metadata !"", i32 0, i32 0, i64 0, i64 0, i64 0, i32 0, null, metadata !449, i32 0, i32 0} ; [ DW_TAG_subroutine_type ]
!449 = metadata !{metadata !122, metadata !422}
!450 = metadata !{i32 786478, i32 0, metadata !290, metadata !"to_int64", metadata !"to_int64", metadata !"_ZNK11ap_int_baseILi19ELb1ELb1EE8to_int64Ev", metadata !66, i32 1668, metadata !451, i1 false, i1 false, i32 0, i32 0, null, i32 256, i1 false, null, null, i32 0, metadata !78, i32 1668} ; [ DW_TAG_subprogram ]
!451 = metadata !{i32 786453, i32 0, metadata !"", i32 0, i32 0, i64 0, i64 0, i64 0, i32 0, null, metadata !452, i32 0, i32 0} ; [ DW_TAG_subroutine_type ]
!452 = metadata !{metadata !126, metadata !422}
!453 = metadata !{i32 786478, i32 0, metadata !290, metadata !"to_uint64", metadata !"to_uint64", metadata !"_ZNK11ap_int_baseILi19ELb1ELb1EE9to_uint64Ev", metadata !66, i32 1669, metadata !454, i1 false, i1 false, i32 0, i32 0, null, i32 256, i1 false, null, null, i32 0, metadata !78, i32 1669} ; [ DW_TAG_subprogram ]
!454 = metadata !{i32 786453, i32 0, metadata !"", i32 0, i32 0, i64 0, i64 0, i64 0, i32 0, null, metadata !455, i32 0, i32 0} ; [ DW_TAG_subroutine_type ]
!455 = metadata !{metadata !131, metadata !422}
!456 = metadata !{i32 786478, i32 0, metadata !290, metadata !"to_double", metadata !"to_double", metadata !"_ZNK11ap_int_baseILi19ELb1ELb1EE9to_doubleEv", metadata !66, i32 1670, metadata !457, i1 false, i1 false, i32 0, i32 0, null, i32 256, i1 false, null, null, i32 0, metadata !78, i32 1670} ; [ DW_TAG_subprogram ]
!457 = metadata !{i32 786453, i32 0, metadata !"", i32 0, i32 0, i64 0, i64 0, i64 0, i32 0, null, metadata !458, i32 0, i32 0} ; [ DW_TAG_subroutine_type ]
!458 = metadata !{metadata !140, metadata !422}
!459 = metadata !{i32 786478, i32 0, metadata !290, metadata !"length", metadata !"length", metadata !"_ZNK11ap_int_baseILi19ELb1ELb1EE6lengthEv", metadata !66, i32 1684, metadata !439, i1 false, i1 false, i32 0, i32 0, null, i32 256, i1 false, null, null, i32 0, metadata !78, i32 1684} ; [ DW_TAG_subprogram ]
!460 = metadata !{i32 786478, i32 0, metadata !290, metadata !"length", metadata !"length", metadata !"_ZNVK11ap_int_baseILi19ELb1ELb1EE6lengthEv", metadata !66, i32 1685, metadata !461, i1 false, i1 false, i32 0, i32 0, null, i32 256, i1 false, null, null, i32 0, metadata !78, i32 1685} ; [ DW_TAG_subprogram ]
!461 = metadata !{i32 786453, i32 0, metadata !"", i32 0, i32 0, i64 0, i64 0, i64 0, i32 0, null, metadata !462, i32 0, i32 0} ; [ DW_TAG_subroutine_type ]
!462 = metadata !{metadata !82, metadata !463}
!463 = metadata !{i32 786447, i32 0, metadata !"", i32 0, i32 0, i64 64, i64 64, i64 0, i32 64, metadata !320} ; [ DW_TAG_pointer_type ]
!464 = metadata !{i32 786478, i32 0, metadata !290, metadata !"reverse", metadata !"reverse", metadata !"_ZN11ap_int_baseILi19ELb1ELb1EE7reverseEv", metadata !66, i32 1690, metadata !465, i1 false, i1 false, i32 0, i32 0, null, i32 256, i1 false, null, null, i32 0, metadata !78, i32 1690} ; [ DW_TAG_subprogram ]
!465 = metadata !{i32 786453, i32 0, metadata !"", i32 0, i32 0, i64 0, i64 0, i64 0, i32 0, null, metadata !466, i32 0, i32 0} ; [ DW_TAG_subroutine_type ]
!466 = metadata !{metadata !381, metadata !307}
!467 = metadata !{i32 786478, i32 0, metadata !290, metadata !"iszero", metadata !"iszero", metadata !"_ZNK11ap_int_baseILi19ELb1ELb1EE6iszeroEv", metadata !66, i32 1696, metadata !424, i1 false, i1 false, i32 0, i32 0, null, i32 256, i1 false, null, null, i32 0, metadata !78, i32 1696} ; [ DW_TAG_subprogram ]
!468 = metadata !{i32 786478, i32 0, metadata !290, metadata !"is_zero", metadata !"is_zero", metadata !"_ZNK11ap_int_baseILi19ELb1ELb1EE7is_zeroEv", metadata !66, i32 1701, metadata !424, i1 false, i1 false, i32 0, i32 0, null, i32 256, i1 false, null, null, i32 0, metadata !78, i32 1701} ; [ DW_TAG_subprogram ]
!469 = metadata !{i32 786478, i32 0, metadata !290, metadata !"sign", metadata !"sign", metadata !"_ZNK11ap_int_baseILi19ELb1ELb1EE4signEv", metadata !66, i32 1706, metadata !424, i1 false, i1 false, i32 0, i32 0, null, i32 256, i1 false, null, null, i32 0, metadata !78, i32 1706} ; [ DW_TAG_subprogram ]
!470 = metadata !{i32 786478, i32 0, metadata !290, metadata !"clear", metadata !"clear", metadata !"_ZN11ap_int_baseILi19ELb1ELb1EE5clearEi", metadata !66, i32 1714, metadata !338, i1 false, i1 false, i32 0, i32 0, null, i32 256, i1 false, null, null, i32 0, metadata !78, i32 1714} ; [ DW_TAG_subprogram ]
!471 = metadata !{i32 786478, i32 0, metadata !290, metadata !"invert", metadata !"invert", metadata !"_ZN11ap_int_baseILi19ELb1ELb1EE6invertEi", metadata !66, i32 1720, metadata !338, i1 false, i1 false, i32 0, i32 0, null, i32 256, i1 false, null, null, i32 0, metadata !78, i32 1720} ; [ DW_TAG_subprogram ]
!472 = metadata !{i32 786478, i32 0, metadata !290, metadata !"test", metadata !"test", metadata !"_ZNK11ap_int_baseILi19ELb1ELb1EE4testEi", metadata !66, i32 1728, metadata !473, i1 false, i1 false, i32 0, i32 0, null, i32 256, i1 false, null, null, i32 0, metadata !78, i32 1728} ; [ DW_TAG_subprogram ]
!473 = metadata !{i32 786453, i32 0, metadata !"", i32 0, i32 0, i64 0, i64 0, i64 0, i32 0, null, metadata !474, i32 0, i32 0} ; [ DW_TAG_subroutine_type ]
!474 = metadata !{metadata !84, metadata !422, metadata !82}
!475 = metadata !{i32 786478, i32 0, metadata !290, metadata !"set", metadata !"set", metadata !"_ZN11ap_int_baseILi19ELb1ELb1EE3setEi", metadata !66, i32 1734, metadata !338, i1 false, i1 false, i32 0, i32 0, null, i32 256, i1 false, null, null, i32 0, metadata !78, i32 1734} ; [ DW_TAG_subprogram ]
!476 = metadata !{i32 786478, i32 0, metadata !290, metadata !"set", metadata !"set", metadata !"_ZN11ap_int_baseILi19ELb1ELb1EE3setEib", metadata !66, i32 1740, metadata !477, i1 false, i1 false, i32 0, i32 0, null, i32 256, i1 false, null, null, i32 0, metadata !78, i32 1740} ; [ DW_TAG_subprogram ]
!477 = metadata !{i32 786453, i32 0, metadata !"", i32 0, i32 0, i64 0, i64 0, i64 0, i32 0, null, metadata !478, i32 0, i32 0} ; [ DW_TAG_subroutine_type ]
!478 = metadata !{null, metadata !307, metadata !82, metadata !84}
!479 = metadata !{i32 786478, i32 0, metadata !290, metadata !"lrotate", metadata !"lrotate", metadata !"_ZN11ap_int_baseILi19ELb1ELb1EE7lrotateEi", metadata !66, i32 1747, metadata !338, i1 false, i1 false, i32 0, i32 0, null, i32 256, i1 false, null, null, i32 0, metadata !78, i32 1747} ; [ DW_TAG_subprogram ]
!480 = metadata !{i32 786478, i32 0, metadata !290, metadata !"rrotate", metadata !"rrotate", metadata !"_ZN11ap_int_baseILi19ELb1ELb1EE7rrotateEi", metadata !66, i32 1756, metadata !338, i1 false, i1 false, i32 0, i32 0, null, i32 256, i1 false, null, null, i32 0, metadata !78, i32 1756} ; [ DW_TAG_subprogram ]
!481 = metadata !{i32 786478, i32 0, metadata !290, metadata !"set_bit", metadata !"set_bit", metadata !"_ZN11ap_int_baseILi19ELb1ELb1EE7set_bitEib", metadata !66, i32 1764, metadata !477, i1 false, i1 false, i32 0, i32 0, null, i32 256, i1 false, null, null, i32 0, metadata !78, i32 1764} ; [ DW_TAG_subprogram ]
!482 = metadata !{i32 786478, i32 0, metadata !290, metadata !"get_bit", metadata !"get_bit", metadata !"_ZNK11ap_int_baseILi19ELb1ELb1EE7get_bitEi", metadata !66, i32 1769, metadata !473, i1 false, i1 false, i32 0, i32 0, null, i32 256, i1 false, null, null, i32 0, metadata !78, i32 1769} ; [ DW_TAG_subprogram ]
!483 = metadata !{i32 786478, i32 0, metadata !290, metadata !"b_not", metadata !"b_not", metadata !"_ZN11ap_int_baseILi19ELb1ELb1EE5b_notEv", metadata !66, i32 1774, metadata !305, i1 false, i1 false, i32 0, i32 0, null, i32 256, i1 false, null, null, i32 0, metadata !78, i32 1774} ; [ DW_TAG_subprogram ]
!484 = metadata !{i32 786478, i32 0, metadata !290, metadata !"countLeadingZeros", metadata !"countLeadingZeros", metadata !"_ZN11ap_int_baseILi19ELb1ELb1EE17countLeadingZerosEv", metadata !66, i32 1781, metadata !485, i1 false, i1 false, i32 0, i32 0, null, i32 256, i1 false, null, null, i32 0, metadata !78, i32 1781} ; [ DW_TAG_subprogram ]
!485 = metadata !{i32 786453, i32 0, metadata !"", i32 0, i32 0, i64 0, i64 0, i64 0, i32 0, null, metadata !486, i32 0, i32 0} ; [ DW_TAG_subroutine_type ]
!486 = metadata !{metadata !82, metadata !307}
!487 = metadata !{i32 786478, i32 0, metadata !290, metadata !"operator++", metadata !"operator++", metadata !"_ZN11ap_int_baseILi19ELb1ELb1EEppEv", metadata !66, i32 1838, metadata !465, i1 false, i1 false, i32 0, i32 0, null, i32 256, i1 false, null, null, i32 0, metadata !78, i32 1838} ; [ DW_TAG_subprogram ]
!488 = metadata !{i32 786478, i32 0, metadata !290, metadata !"operator--", metadata !"operator--", metadata !"_ZN11ap_int_baseILi19ELb1ELb1EEmmEv", metadata !66, i32 1842, metadata !465, i1 false, i1 false, i32 0, i32 0, null, i32 256, i1 false, null, null, i32 0, metadata !78, i32 1842} ; [ DW_TAG_subprogram ]
!489 = metadata !{i32 786478, i32 0, metadata !290, metadata !"operator++", metadata !"operator++", metadata !"_ZN11ap_int_baseILi19ELb1ELb1EEppEi", metadata !66, i32 1850, metadata !490, i1 false, i1 false, i32 0, i32 0, null, i32 256, i1 false, null, null, i32 0, metadata !78, i32 1850} ; [ DW_TAG_subprogram ]
!490 = metadata !{i32 786453, i32 0, metadata !"", i32 0, i32 0, i64 0, i64 0, i64 0, i32 0, null, metadata !491, i32 0, i32 0} ; [ DW_TAG_subroutine_type ]
!491 = metadata !{metadata !312, metadata !307, metadata !82}
!492 = metadata !{i32 786478, i32 0, metadata !290, metadata !"operator--", metadata !"operator--", metadata !"_ZN11ap_int_baseILi19ELb1ELb1EEmmEi", metadata !66, i32 1855, metadata !490, i1 false, i1 false, i32 0, i32 0, null, i32 256, i1 false, null, null, i32 0, metadata !78, i32 1855} ; [ DW_TAG_subprogram ]
!493 = metadata !{i32 786478, i32 0, metadata !290, metadata !"operator+", metadata !"operator+", metadata !"_ZNK11ap_int_baseILi19ELb1ELb1EEpsEv", metadata !66, i32 1864, metadata !494, i1 false, i1 false, i32 0, i32 0, null, i32 256, i1 false, null, null, i32 0, metadata !78, i32 1864} ; [ DW_TAG_subprogram ]
!494 = metadata !{i32 786453, i32 0, metadata !"", i32 0, i32 0, i64 0, i64 0, i64 0, i32 0, null, metadata !495, i32 0, i32 0} ; [ DW_TAG_subroutine_type ]
!495 = metadata !{metadata !290, metadata !422}
!496 = metadata !{i32 786478, i32 0, metadata !290, metadata !"operator!", metadata !"operator!", metadata !"_ZNK11ap_int_baseILi19ELb1ELb1EEntEv", metadata !66, i32 1870, metadata !424, i1 false, i1 false, i32 0, i32 0, null, i32 256, i1 false, null, null, i32 0, metadata !78, i32 1870} ; [ DW_TAG_subprogram ]
!497 = metadata !{i32 786478, i32 0, metadata !290, metadata !"operator-", metadata !"operator-", metadata !"_ZNK11ap_int_baseILi19ELb1ELb1EEngEv", metadata !66, i32 1875, metadata !498, i1 false, i1 false, i32 0, i32 0, null, i32 256, i1 false, null, null, i32 0, metadata !78, i32 1875} ; [ DW_TAG_subprogram ]
!498 = metadata !{i32 786453, i32 0, metadata !"", i32 0, i32 0, i64 0, i64 0, i64 0, i32 0, null, metadata !499, i32 0, i32 0} ; [ DW_TAG_subroutine_type ]
!499 = metadata !{metadata !500, metadata !422}
!500 = metadata !{i32 786434, null, metadata !"ap_int_base<20, true, true>", metadata !66, i32 650, i32 0, i32 0, i32 0, i32 4, null, null, i32 0} ; [ DW_TAG_class_type ]
!501 = metadata !{i32 786478, i32 0, metadata !290, metadata !"range", metadata !"range", metadata !"_ZN11ap_int_baseILi19ELb1ELb1EE5rangeEii", metadata !66, i32 2005, metadata !502, i1 false, i1 false, i32 0, i32 0, null, i32 256, i1 false, null, null, i32 0, metadata !78, i32 2005} ; [ DW_TAG_subprogram ]
!502 = metadata !{i32 786453, i32 0, metadata !"", i32 0, i32 0, i64 0, i64 0, i64 0, i32 0, null, metadata !503, i32 0, i32 0} ; [ DW_TAG_subroutine_type ]
!503 = metadata !{metadata !504, metadata !307, metadata !82, metadata !82}
!504 = metadata !{i32 786434, null, metadata !"ap_range_ref<19, true>", metadata !66, i32 923, i32 0, i32 0, i32 0, i32 4, null, null, i32 0} ; [ DW_TAG_class_type ]
!505 = metadata !{i32 786478, i32 0, metadata !290, metadata !"operator()", metadata !"operator()", metadata !"_ZN11ap_int_baseILi19ELb1ELb1EEclEii", metadata !66, i32 2011, metadata !502, i1 false, i1 false, i32 0, i32 0, null, i32 256, i1 false, null, null, i32 0, metadata !78, i32 2011} ; [ DW_TAG_subprogram ]
!506 = metadata !{i32 786478, i32 0, metadata !290, metadata !"range", metadata !"range", metadata !"_ZNK11ap_int_baseILi19ELb1ELb1EE5rangeEii", metadata !66, i32 2017, metadata !507, i1 false, i1 false, i32 0, i32 0, null, i32 256, i1 false, null, null, i32 0, metadata !78, i32 2017} ; [ DW_TAG_subprogram ]
!507 = metadata !{i32 786453, i32 0, metadata !"", i32 0, i32 0, i64 0, i64 0, i64 0, i32 0, null, metadata !508, i32 0, i32 0} ; [ DW_TAG_subroutine_type ]
!508 = metadata !{metadata !504, metadata !422, metadata !82, metadata !82}
!509 = metadata !{i32 786478, i32 0, metadata !290, metadata !"operator()", metadata !"operator()", metadata !"_ZNK11ap_int_baseILi19ELb1ELb1EEclEii", metadata !66, i32 2023, metadata !507, i1 false, i1 false, i32 0, i32 0, null, i32 256, i1 false, null, null, i32 0, metadata !78, i32 2023} ; [ DW_TAG_subprogram ]
!510 = metadata !{i32 786478, i32 0, metadata !290, metadata !"operator[]", metadata !"operator[]", metadata !"_ZN11ap_int_baseILi19ELb1ELb1EEixEi", metadata !66, i32 2042, metadata !511, i1 false, i1 false, i32 0, i32 0, null, i32 256, i1 false, null, null, i32 0, metadata !78, i32 2042} ; [ DW_TAG_subprogram ]
!511 = metadata !{i32 786453, i32 0, metadata !"", i32 0, i32 0, i64 0, i64 0, i64 0, i32 0, null, metadata !512, i32 0, i32 0} ; [ DW_TAG_subroutine_type ]
!512 = metadata !{metadata !513, metadata !307, metadata !82}
!513 = metadata !{i32 786434, null, metadata !"ap_bit_ref<19, true>", metadata !66, i32 1193, i32 0, i32 0, i32 0, i32 4, null, null, i32 0} ; [ DW_TAG_class_type ]
!514 = metadata !{i32 786478, i32 0, metadata !290, metadata !"operator[]", metadata !"operator[]", metadata !"_ZNK11ap_int_baseILi19ELb1ELb1EEixEi", metadata !66, i32 2056, metadata !473, i1 false, i1 false, i32 0, i32 0, null, i32 256, i1 false, null, null, i32 0, metadata !78, i32 2056} ; [ DW_TAG_subprogram ]
!515 = metadata !{i32 786478, i32 0, metadata !290, metadata !"bit", metadata !"bit", metadata !"_ZN11ap_int_baseILi19ELb1ELb1EE3bitEi", metadata !66, i32 2070, metadata !511, i1 false, i1 false, i32 0, i32 0, null, i32 256, i1 false, null, null, i32 0, metadata !78, i32 2070} ; [ DW_TAG_subprogram ]
!516 = metadata !{i32 786478, i32 0, metadata !290, metadata !"bit", metadata !"bit", metadata !"_ZNK11ap_int_baseILi19ELb1ELb1EE3bitEi", metadata !66, i32 2084, metadata !473, i1 false, i1 false, i32 0, i32 0, null, i32 256, i1 false, null, null, i32 0, metadata !78, i32 2084} ; [ DW_TAG_subprogram ]
!517 = metadata !{i32 786478, i32 0, metadata !290, metadata !"and_reduce", metadata !"and_reduce", metadata !"_ZN11ap_int_baseILi19ELb1ELb1EE10and_reduceEv", metadata !66, i32 2264, metadata !518, i1 false, i1 false, i32 0, i32 0, null, i32 256, i1 false, null, null, i32 0, metadata !78, i32 2264} ; [ DW_TAG_subprogram ]
!518 = metadata !{i32 786453, i32 0, metadata !"", i32 0, i32 0, i64 0, i64 0, i64 0, i32 0, null, metadata !519, i32 0, i32 0} ; [ DW_TAG_subroutine_type ]
!519 = metadata !{metadata !84, metadata !307}
!520 = metadata !{i32 786478, i32 0, metadata !290, metadata !"nand_reduce", metadata !"nand_reduce", metadata !"_ZN11ap_int_baseILi19ELb1ELb1EE11nand_reduceEv", metadata !66, i32 2267, metadata !518, i1 false, i1 false, i32 0, i32 0, null, i32 256, i1 false, null, null, i32 0, metadata !78, i32 2267} ; [ DW_TAG_subprogram ]
!521 = metadata !{i32 786478, i32 0, metadata !290, metadata !"or_reduce", metadata !"or_reduce", metadata !"_ZN11ap_int_baseILi19ELb1ELb1EE9or_reduceEv", metadata !66, i32 2270, metadata !518, i1 false, i1 false, i32 0, i32 0, null, i32 256, i1 false, null, null, i32 0, metadata !78, i32 2270} ; [ DW_TAG_subprogram ]
!522 = metadata !{i32 786478, i32 0, metadata !290, metadata !"nor_reduce", metadata !"nor_reduce", metadata !"_ZN11ap_int_baseILi19ELb1ELb1EE10nor_reduceEv", metadata !66, i32 2273, metadata !518, i1 false, i1 false, i32 0, i32 0, null, i32 256, i1 false, null, null, i32 0, metadata !78, i32 2273} ; [ DW_TAG_subprogram ]
!523 = metadata !{i32 786478, i32 0, metadata !290, metadata !"xor_reduce", metadata !"xor_reduce", metadata !"_ZN11ap_int_baseILi19ELb1ELb1EE10xor_reduceEv", metadata !66, i32 2276, metadata !518, i1 false, i1 false, i32 0, i32 0, null, i32 256, i1 false, null, null, i32 0, metadata !78, i32 2276} ; [ DW_TAG_subprogram ]
!524 = metadata !{i32 786478, i32 0, metadata !290, metadata !"xnor_reduce", metadata !"xnor_reduce", metadata !"_ZN11ap_int_baseILi19ELb1ELb1EE11xnor_reduceEv", metadata !66, i32 2279, metadata !518, i1 false, i1 false, i32 0, i32 0, null, i32 256, i1 false, null, null, i32 0, metadata !78, i32 2279} ; [ DW_TAG_subprogram ]
!525 = metadata !{i32 786478, i32 0, metadata !290, metadata !"and_reduce", metadata !"and_reduce", metadata !"_ZNK11ap_int_baseILi19ELb1ELb1EE10and_reduceEv", metadata !66, i32 2283, metadata !424, i1 false, i1 false, i32 0, i32 0, null, i32 256, i1 false, null, null, i32 0, metadata !78, i32 2283} ; [ DW_TAG_subprogram ]
!526 = metadata !{i32 786478, i32 0, metadata !290, metadata !"nand_reduce", metadata !"nand_reduce", metadata !"_ZNK11ap_int_baseILi19ELb1ELb1EE11nand_reduceEv", metadata !66, i32 2286, metadata !424, i1 false, i1 false, i32 0, i32 0, null, i32 256, i1 false, null, null, i32 0, metadata !78, i32 2286} ; [ DW_TAG_subprogram ]
!527 = metadata !{i32 786478, i32 0, metadata !290, metadata !"or_reduce", metadata !"or_reduce", metadata !"_ZNK11ap_int_baseILi19ELb1ELb1EE9or_reduceEv", metadata !66, i32 2289, metadata !424, i1 false, i1 false, i32 0, i32 0, null, i32 256, i1 false, null, null, i32 0, metadata !78, i32 2289} ; [ DW_TAG_subprogram ]
!528 = metadata !{i32 786478, i32 0, metadata !290, metadata !"nor_reduce", metadata !"nor_reduce", metadata !"_ZNK11ap_int_baseILi19ELb1ELb1EE10nor_reduceEv", metadata !66, i32 2292, metadata !424, i1 false, i1 false, i32 0, i32 0, null, i32 256, i1 false, null, null, i32 0, metadata !78, i32 2292} ; [ DW_TAG_subprogram ]
!529 = metadata !{i32 786478, i32 0, metadata !290, metadata !"xor_reduce", metadata !"xor_reduce", metadata !"_ZNK11ap_int_baseILi19ELb1ELb1EE10xor_reduceEv", metadata !66, i32 2295, metadata !424, i1 false, i1 false, i32 0, i32 0, null, i32 256, i1 false, null, null, i32 0, metadata !78, i32 2295} ; [ DW_TAG_subprogram ]
!530 = metadata !{i32 786478, i32 0, metadata !290, metadata !"xnor_reduce", metadata !"xnor_reduce", metadata !"_ZNK11ap_int_baseILi19ELb1ELb1EE11xnor_reduceEv", metadata !66, i32 2298, metadata !424, i1 false, i1 false, i32 0, i32 0, null, i32 256, i1 false, null, null, i32 0, metadata !78, i32 2298} ; [ DW_TAG_subprogram ]
!531 = metadata !{i32 786478, i32 0, metadata !290, metadata !"to_string", metadata !"to_string", metadata !"_ZNK11ap_int_baseILi19ELb1ELb1EE9to_stringEPci8BaseModeb", metadata !66, i32 2305, metadata !532, i1 false, i1 false, i32 0, i32 0, null, i32 256, i1 false, null, null, i32 0, metadata !78, i32 2305} ; [ DW_TAG_subprogram ]
!532 = metadata !{i32 786453, i32 0, metadata !"", i32 0, i32 0, i64 0, i64 0, i64 0, i32 0, null, metadata !533, i32 0, i32 0} ; [ DW_TAG_subroutine_type ]
!533 = metadata !{null, metadata !422, metadata !534, metadata !82, metadata !535, metadata !84}
!534 = metadata !{i32 786447, null, metadata !"", null, i32 0, i64 64, i64 64, i64 0, i32 0, metadata !146} ; [ DW_TAG_pointer_type ]
!535 = metadata !{i32 786436, null, metadata !"BaseMode", metadata !66, i32 602, i64 5, i64 8, i32 0, i32 0, null, metadata !536, i32 0, i32 0} ; [ DW_TAG_enumeration_type ]
!536 = metadata !{metadata !537, metadata !538, metadata !539, metadata !540}
!537 = metadata !{i32 786472, metadata !"SC_BIN", i64 2} ; [ DW_TAG_enumerator ]
!538 = metadata !{i32 786472, metadata !"SC_OCT", i64 8} ; [ DW_TAG_enumerator ]
!539 = metadata !{i32 786472, metadata !"SC_DEC", i64 10} ; [ DW_TAG_enumerator ]
!540 = metadata !{i32 786472, metadata !"SC_HEX", i64 16} ; [ DW_TAG_enumerator ]
!541 = metadata !{i32 786478, i32 0, metadata !290, metadata !"to_string", metadata !"to_string", metadata !"_ZNK11ap_int_baseILi19ELb1ELb1EE9to_stringE8BaseModeb", metadata !66, i32 2332, metadata !542, i1 false, i1 false, i32 0, i32 0, null, i32 256, i1 false, null, null, i32 0, metadata !78, i32 2332} ; [ DW_TAG_subprogram ]
!542 = metadata !{i32 786453, i32 0, metadata !"", i32 0, i32 0, i64 0, i64 0, i64 0, i32 0, null, metadata !543, i32 0, i32 0} ; [ DW_TAG_subroutine_type ]
!543 = metadata !{metadata !534, metadata !422, metadata !535, metadata !84}
!544 = metadata !{i32 786478, i32 0, metadata !290, metadata !"to_string", metadata !"to_string", metadata !"_ZNK11ap_int_baseILi19ELb1ELb1EE9to_stringEab", metadata !66, i32 2336, metadata !545, i1 false, i1 false, i32 0, i32 0, null, i32 256, i1 false, null, null, i32 0, metadata !78, i32 2336} ; [ DW_TAG_subprogram ]
!545 = metadata !{i32 786453, i32 0, metadata !"", i32 0, i32 0, i64 0, i64 0, i64 0, i32 0, null, metadata !546, i32 0, i32 0} ; [ DW_TAG_subroutine_type ]
!546 = metadata !{metadata !534, metadata !422, metadata !95, metadata !84}
!547 = metadata !{metadata !548, metadata !303, metadata !549}
!548 = metadata !{i32 786480, null, metadata !"_AP_W", metadata !82, i64 19, null, i32 0, i32 0} ; [ DW_TAG_template_value_parameter ]
!549 = metadata !{i32 786480, null, metadata !"_AP_C", metadata !84, i64 1, null, i32 0, i32 0} ; [ DW_TAG_template_value_parameter ]
!550 = metadata !{i32 786478, i32 0, metadata !65, metadata !"range", metadata !"range", metadata !"_ZN11ap_int_baseILi18ELb0ELb1EE5rangeEii", metadata !66, i32 2005, metadata !551, i1 false, i1 false, i32 0, i32 0, null, i32 256, i1 false, null, null, i32 0, metadata !78, i32 2005} ; [ DW_TAG_subprogram ]
!551 = metadata !{i32 786453, i32 0, metadata !"", i32 0, i32 0, i64 0, i64 0, i64 0, i32 0, null, metadata !552, i32 0, i32 0} ; [ DW_TAG_subroutine_type ]
!552 = metadata !{metadata !553, metadata !88, metadata !82, metadata !82}
!553 = metadata !{i32 786434, null, metadata !"ap_range_ref<18, false>", metadata !66, i32 923, i32 0, i32 0, i32 0, i32 4, null, null, i32 0} ; [ DW_TAG_class_type ]
!554 = metadata !{i32 786478, i32 0, metadata !65, metadata !"operator()", metadata !"operator()", metadata !"_ZN11ap_int_baseILi18ELb0ELb1EEclEii", metadata !66, i32 2011, metadata !551, i1 false, i1 false, i32 0, i32 0, null, i32 256, i1 false, null, null, i32 0, metadata !78, i32 2011} ; [ DW_TAG_subprogram ]
!555 = metadata !{i32 786478, i32 0, metadata !65, metadata !"range", metadata !"range", metadata !"_ZNK11ap_int_baseILi18ELb0ELb1EE5rangeEii", metadata !66, i32 2017, metadata !556, i1 false, i1 false, i32 0, i32 0, null, i32 256, i1 false, null, null, i32 0, metadata !78, i32 2017} ; [ DW_TAG_subprogram ]
!556 = metadata !{i32 786453, i32 0, metadata !"", i32 0, i32 0, i64 0, i64 0, i64 0, i32 0, null, metadata !557, i32 0, i32 0} ; [ DW_TAG_subroutine_type ]
!557 = metadata !{metadata !553, metadata !212, metadata !82, metadata !82}
!558 = metadata !{i32 786478, i32 0, metadata !65, metadata !"operator()", metadata !"operator()", metadata !"_ZNK11ap_int_baseILi18ELb0ELb1EEclEii", metadata !66, i32 2023, metadata !556, i1 false, i1 false, i32 0, i32 0, null, i32 256, i1 false, null, null, i32 0, metadata !78, i32 2023} ; [ DW_TAG_subprogram ]
!559 = metadata !{i32 786478, i32 0, metadata !65, metadata !"operator[]", metadata !"operator[]", metadata !"_ZN11ap_int_baseILi18ELb0ELb1EEixEi", metadata !66, i32 2042, metadata !560, i1 false, i1 false, i32 0, i32 0, null, i32 256, i1 false, null, null, i32 0, metadata !78, i32 2042} ; [ DW_TAG_subprogram ]
!560 = metadata !{i32 786453, i32 0, metadata !"", i32 0, i32 0, i64 0, i64 0, i64 0, i32 0, null, metadata !561, i32 0, i32 0} ; [ DW_TAG_subroutine_type ]
!561 = metadata !{metadata !562, metadata !88, metadata !82}
!562 = metadata !{i32 786434, null, metadata !"ap_bit_ref<18, false>", metadata !66, i32 1193, i32 0, i32 0, i32 0, i32 4, null, null, i32 0} ; [ DW_TAG_class_type ]
!563 = metadata !{i32 786478, i32 0, metadata !65, metadata !"operator[]", metadata !"operator[]", metadata !"_ZNK11ap_int_baseILi18ELb0ELb1EEixEi", metadata !66, i32 2056, metadata !263, i1 false, i1 false, i32 0, i32 0, null, i32 256, i1 false, null, null, i32 0, metadata !78, i32 2056} ; [ DW_TAG_subprogram ]
!564 = metadata !{i32 786478, i32 0, metadata !65, metadata !"bit", metadata !"bit", metadata !"_ZN11ap_int_baseILi18ELb0ELb1EE3bitEi", metadata !66, i32 2070, metadata !560, i1 false, i1 false, i32 0, i32 0, null, i32 256, i1 false, null, null, i32 0, metadata !78, i32 2070} ; [ DW_TAG_subprogram ]
!565 = metadata !{i32 786478, i32 0, metadata !65, metadata !"bit", metadata !"bit", metadata !"_ZNK11ap_int_baseILi18ELb0ELb1EE3bitEi", metadata !66, i32 2084, metadata !263, i1 false, i1 false, i32 0, i32 0, null, i32 256, i1 false, null, null, i32 0, metadata !78, i32 2084} ; [ DW_TAG_subprogram ]
!566 = metadata !{i32 786478, i32 0, metadata !65, metadata !"and_reduce", metadata !"and_reduce", metadata !"_ZN11ap_int_baseILi18ELb0ELb1EE10and_reduceEv", metadata !66, i32 2264, metadata !567, i1 false, i1 false, i32 0, i32 0, null, i32 256, i1 false, null, null, i32 0, metadata !78, i32 2264} ; [ DW_TAG_subprogram ]
!567 = metadata !{i32 786453, i32 0, metadata !"", i32 0, i32 0, i64 0, i64 0, i64 0, i32 0, null, metadata !568, i32 0, i32 0} ; [ DW_TAG_subroutine_type ]
!568 = metadata !{metadata !84, metadata !88}
!569 = metadata !{i32 786478, i32 0, metadata !65, metadata !"nand_reduce", metadata !"nand_reduce", metadata !"_ZN11ap_int_baseILi18ELb0ELb1EE11nand_reduceEv", metadata !66, i32 2267, metadata !567, i1 false, i1 false, i32 0, i32 0, null, i32 256, i1 false, null, null, i32 0, metadata !78, i32 2267} ; [ DW_TAG_subprogram ]
!570 = metadata !{i32 786478, i32 0, metadata !65, metadata !"or_reduce", metadata !"or_reduce", metadata !"_ZN11ap_int_baseILi18ELb0ELb1EE9or_reduceEv", metadata !66, i32 2270, metadata !567, i1 false, i1 false, i32 0, i32 0, null, i32 256, i1 false, null, null, i32 0, metadata !78, i32 2270} ; [ DW_TAG_subprogram ]
!571 = metadata !{i32 786478, i32 0, metadata !65, metadata !"nor_reduce", metadata !"nor_reduce", metadata !"_ZN11ap_int_baseILi18ELb0ELb1EE10nor_reduceEv", metadata !66, i32 2273, metadata !567, i1 false, i1 false, i32 0, i32 0, null, i32 256, i1 false, null, null, i32 0, metadata !78, i32 2273} ; [ DW_TAG_subprogram ]
!572 = metadata !{i32 786478, i32 0, metadata !65, metadata !"xor_reduce", metadata !"xor_reduce", metadata !"_ZN11ap_int_baseILi18ELb0ELb1EE10xor_reduceEv", metadata !66, i32 2276, metadata !567, i1 false, i1 false, i32 0, i32 0, null, i32 256, i1 false, null, null, i32 0, metadata !78, i32 2276} ; [ DW_TAG_subprogram ]
!573 = metadata !{i32 786478, i32 0, metadata !65, metadata !"xnor_reduce", metadata !"xnor_reduce", metadata !"_ZN11ap_int_baseILi18ELb0ELb1EE11xnor_reduceEv", metadata !66, i32 2279, metadata !567, i1 false, i1 false, i32 0, i32 0, null, i32 256, i1 false, null, null, i32 0, metadata !78, i32 2279} ; [ DW_TAG_subprogram ]
!574 = metadata !{i32 786478, i32 0, metadata !65, metadata !"and_reduce", metadata !"and_reduce", metadata !"_ZNK11ap_int_baseILi18ELb0ELb1EE10and_reduceEv", metadata !66, i32 2283, metadata !214, i1 false, i1 false, i32 0, i32 0, null, i32 256, i1 false, null, null, i32 0, metadata !78, i32 2283} ; [ DW_TAG_subprogram ]
!575 = metadata !{i32 786478, i32 0, metadata !65, metadata !"nand_reduce", metadata !"nand_reduce", metadata !"_ZNK11ap_int_baseILi18ELb0ELb1EE11nand_reduceEv", metadata !66, i32 2286, metadata !214, i1 false, i1 false, i32 0, i32 0, null, i32 256, i1 false, null, null, i32 0, metadata !78, i32 2286} ; [ DW_TAG_subprogram ]
!576 = metadata !{i32 786478, i32 0, metadata !65, metadata !"or_reduce", metadata !"or_reduce", metadata !"_ZNK11ap_int_baseILi18ELb0ELb1EE9or_reduceEv", metadata !66, i32 2289, metadata !214, i1 false, i1 false, i32 0, i32 0, null, i32 256, i1 false, null, null, i32 0, metadata !78, i32 2289} ; [ DW_TAG_subprogram ]
!577 = metadata !{i32 786478, i32 0, metadata !65, metadata !"nor_reduce", metadata !"nor_reduce", metadata !"_ZNK11ap_int_baseILi18ELb0ELb1EE10nor_reduceEv", metadata !66, i32 2292, metadata !214, i1 false, i1 false, i32 0, i32 0, null, i32 256, i1 false, null, null, i32 0, metadata !78, i32 2292} ; [ DW_TAG_subprogram ]
!578 = metadata !{i32 786478, i32 0, metadata !65, metadata !"xor_reduce", metadata !"xor_reduce", metadata !"_ZNK11ap_int_baseILi18ELb0ELb1EE10xor_reduceEv", metadata !66, i32 2295, metadata !214, i1 false, i1 false, i32 0, i32 0, null, i32 256, i1 false, null, null, i32 0, metadata !78, i32 2295} ; [ DW_TAG_subprogram ]
!579 = metadata !{i32 786478, i32 0, metadata !65, metadata !"xnor_reduce", metadata !"xnor_reduce", metadata !"_ZNK11ap_int_baseILi18ELb0ELb1EE11xnor_reduceEv", metadata !66, i32 2298, metadata !214, i1 false, i1 false, i32 0, i32 0, null, i32 256, i1 false, null, null, i32 0, metadata !78, i32 2298} ; [ DW_TAG_subprogram ]
!580 = metadata !{i32 786478, i32 0, metadata !65, metadata !"to_string", metadata !"to_string", metadata !"_ZNK11ap_int_baseILi18ELb0ELb1EE9to_stringEPci8BaseModeb", metadata !66, i32 2305, metadata !581, i1 false, i1 false, i32 0, i32 0, null, i32 256, i1 false, null, null, i32 0, metadata !78, i32 2305} ; [ DW_TAG_subprogram ]
!581 = metadata !{i32 786453, i32 0, metadata !"", i32 0, i32 0, i64 0, i64 0, i64 0, i32 0, null, metadata !582, i32 0, i32 0} ; [ DW_TAG_subroutine_type ]
!582 = metadata !{null, metadata !212, metadata !534, metadata !82, metadata !535, metadata !84}
!583 = metadata !{i32 786478, i32 0, metadata !65, metadata !"to_string", metadata !"to_string", metadata !"_ZNK11ap_int_baseILi18ELb0ELb1EE9to_stringE8BaseModeb", metadata !66, i32 2332, metadata !584, i1 false, i1 false, i32 0, i32 0, null, i32 256, i1 false, null, null, i32 0, metadata !78, i32 2332} ; [ DW_TAG_subprogram ]
!584 = metadata !{i32 786453, i32 0, metadata !"", i32 0, i32 0, i64 0, i64 0, i64 0, i32 0, null, metadata !585, i32 0, i32 0} ; [ DW_TAG_subroutine_type ]
!585 = metadata !{metadata !534, metadata !212, metadata !535, metadata !84}
!586 = metadata !{i32 786478, i32 0, metadata !65, metadata !"to_string", metadata !"to_string", metadata !"_ZNK11ap_int_baseILi18ELb0ELb1EE9to_stringEab", metadata !66, i32 2336, metadata !587, i1 false, i1 false, i32 0, i32 0, null, i32 256, i1 false, null, null, i32 0, metadata !78, i32 2336} ; [ DW_TAG_subprogram ]
!587 = metadata !{i32 786453, i32 0, metadata !"", i32 0, i32 0, i64 0, i64 0, i64 0, i32 0, null, metadata !588, i32 0, i32 0} ; [ DW_TAG_subroutine_type ]
!588 = metadata !{metadata !534, metadata !212, metadata !95, metadata !84}
!589 = metadata !{metadata !590, metadata !83, metadata !549}
!590 = metadata !{i32 786480, null, metadata !"_AP_W", metadata !82, i64 18, null, i32 0, i32 0} ; [ DW_TAG_template_value_parameter ]
!591 = metadata !{i32 786478, i32 0, metadata !61, metadata !"ap_uint", metadata !"ap_uint", metadata !"", metadata !62, i32 183, metadata !592, i1 false, i1 false, i32 0, i32 0, null, i32 256, i1 false, null, null, i32 0, metadata !78, i32 183} ; [ DW_TAG_subprogram ]
!592 = metadata !{i32 786453, i32 0, metadata !"", i32 0, i32 0, i64 0, i64 0, i64 0, i32 0, null, metadata !593, i32 0, i32 0} ; [ DW_TAG_subroutine_type ]
!593 = metadata !{null, metadata !594}
!594 = metadata !{i32 786447, i32 0, metadata !"", i32 0, i32 0, i64 64, i64 64, i64 0, i32 64, metadata !61} ; [ DW_TAG_pointer_type ]
!595 = metadata !{i32 786478, i32 0, metadata !61, metadata !"ap_uint", metadata !"ap_uint", metadata !"", metadata !62, i32 245, metadata !596, i1 false, i1 false, i32 0, i32 0, null, i32 256, i1 false, null, null, i32 0, metadata !78, i32 245} ; [ DW_TAG_subprogram ]
!596 = metadata !{i32 786453, i32 0, metadata !"", i32 0, i32 0, i64 0, i64 0, i64 0, i32 0, null, metadata !597, i32 0, i32 0} ; [ DW_TAG_subroutine_type ]
!597 = metadata !{null, metadata !594, metadata !84}
!598 = metadata !{i32 786478, i32 0, metadata !61, metadata !"ap_uint", metadata !"ap_uint", metadata !"", metadata !62, i32 246, metadata !599, i1 false, i1 false, i32 0, i32 0, null, i32 256, i1 false, null, null, i32 0, metadata !78, i32 246} ; [ DW_TAG_subprogram ]
!599 = metadata !{i32 786453, i32 0, metadata !"", i32 0, i32 0, i64 0, i64 0, i64 0, i32 0, null, metadata !600, i32 0, i32 0} ; [ DW_TAG_subroutine_type ]
!600 = metadata !{null, metadata !594, metadata !95}
!601 = metadata !{i32 786478, i32 0, metadata !61, metadata !"ap_uint", metadata !"ap_uint", metadata !"", metadata !62, i32 247, metadata !602, i1 false, i1 false, i32 0, i32 0, null, i32 256, i1 false, null, null, i32 0, metadata !78, i32 247} ; [ DW_TAG_subprogram ]
!602 = metadata !{i32 786453, i32 0, metadata !"", i32 0, i32 0, i64 0, i64 0, i64 0, i32 0, null, metadata !603, i32 0, i32 0} ; [ DW_TAG_subroutine_type ]
!603 = metadata !{null, metadata !594, metadata !99}
!604 = metadata !{i32 786478, i32 0, metadata !61, metadata !"ap_uint", metadata !"ap_uint", metadata !"", metadata !62, i32 248, metadata !605, i1 false, i1 false, i32 0, i32 0, null, i32 256, i1 false, null, null, i32 0, metadata !78, i32 248} ; [ DW_TAG_subprogram ]
!605 = metadata !{i32 786453, i32 0, metadata !"", i32 0, i32 0, i64 0, i64 0, i64 0, i32 0, null, metadata !606, i32 0, i32 0} ; [ DW_TAG_subroutine_type ]
!606 = metadata !{null, metadata !594, metadata !103}
!607 = metadata !{i32 786478, i32 0, metadata !61, metadata !"ap_uint", metadata !"ap_uint", metadata !"", metadata !62, i32 249, metadata !608, i1 false, i1 false, i32 0, i32 0, null, i32 256, i1 false, null, null, i32 0, metadata !78, i32 249} ; [ DW_TAG_subprogram ]
!608 = metadata !{i32 786453, i32 0, metadata !"", i32 0, i32 0, i64 0, i64 0, i64 0, i32 0, null, metadata !609, i32 0, i32 0} ; [ DW_TAG_subroutine_type ]
!609 = metadata !{null, metadata !594, metadata !107}
!610 = metadata !{i32 786478, i32 0, metadata !61, metadata !"ap_uint", metadata !"ap_uint", metadata !"", metadata !62, i32 250, metadata !611, i1 false, i1 false, i32 0, i32 0, null, i32 256, i1 false, null, null, i32 0, metadata !78, i32 250} ; [ DW_TAG_subprogram ]
!611 = metadata !{i32 786453, i32 0, metadata !"", i32 0, i32 0, i64 0, i64 0, i64 0, i32 0, null, metadata !612, i32 0, i32 0} ; [ DW_TAG_subroutine_type ]
!612 = metadata !{null, metadata !594, metadata !82}
!613 = metadata !{i32 786478, i32 0, metadata !61, metadata !"ap_uint", metadata !"ap_uint", metadata !"", metadata !62, i32 251, metadata !614, i1 false, i1 false, i32 0, i32 0, null, i32 256, i1 false, null, null, i32 0, metadata !78, i32 251} ; [ DW_TAG_subprogram ]
!614 = metadata !{i32 786453, i32 0, metadata !"", i32 0, i32 0, i64 0, i64 0, i64 0, i32 0, null, metadata !615, i32 0, i32 0} ; [ DW_TAG_subroutine_type ]
!615 = metadata !{null, metadata !594, metadata !114}
!616 = metadata !{i32 786478, i32 0, metadata !61, metadata !"ap_uint", metadata !"ap_uint", metadata !"", metadata !62, i32 252, metadata !617, i1 false, i1 false, i32 0, i32 0, null, i32 256, i1 false, null, null, i32 0, metadata !78, i32 252} ; [ DW_TAG_subprogram ]
!617 = metadata !{i32 786453, i32 0, metadata !"", i32 0, i32 0, i64 0, i64 0, i64 0, i32 0, null, metadata !618, i32 0, i32 0} ; [ DW_TAG_subroutine_type ]
!618 = metadata !{null, metadata !594, metadata !118}
!619 = metadata !{i32 786478, i32 0, metadata !61, metadata !"ap_uint", metadata !"ap_uint", metadata !"", metadata !62, i32 253, metadata !620, i1 false, i1 false, i32 0, i32 0, null, i32 256, i1 false, null, null, i32 0, metadata !78, i32 253} ; [ DW_TAG_subprogram ]
!620 = metadata !{i32 786453, i32 0, metadata !"", i32 0, i32 0, i64 0, i64 0, i64 0, i32 0, null, metadata !621, i32 0, i32 0} ; [ DW_TAG_subroutine_type ]
!621 = metadata !{null, metadata !594, metadata !122}
!622 = metadata !{i32 786478, i32 0, metadata !61, metadata !"ap_uint", metadata !"ap_uint", metadata !"", metadata !62, i32 254, metadata !623, i1 false, i1 false, i32 0, i32 0, null, i32 256, i1 false, null, null, i32 0, metadata !78, i32 254} ; [ DW_TAG_subprogram ]
!623 = metadata !{i32 786453, i32 0, metadata !"", i32 0, i32 0, i64 0, i64 0, i64 0, i32 0, null, metadata !624, i32 0, i32 0} ; [ DW_TAG_subroutine_type ]
!624 = metadata !{null, metadata !594, metadata !132}
!625 = metadata !{i32 786478, i32 0, metadata !61, metadata !"ap_uint", metadata !"ap_uint", metadata !"", metadata !62, i32 255, metadata !626, i1 false, i1 false, i32 0, i32 0, null, i32 256, i1 false, null, null, i32 0, metadata !78, i32 255} ; [ DW_TAG_subprogram ]
!626 = metadata !{i32 786453, i32 0, metadata !"", i32 0, i32 0, i64 0, i64 0, i64 0, i32 0, null, metadata !627, i32 0, i32 0} ; [ DW_TAG_subroutine_type ]
!627 = metadata !{null, metadata !594, metadata !127}
!628 = metadata !{i32 786478, i32 0, metadata !61, metadata !"ap_uint", metadata !"ap_uint", metadata !"", metadata !62, i32 256, metadata !629, i1 false, i1 false, i32 0, i32 0, null, i32 256, i1 false, null, null, i32 0, metadata !78, i32 256} ; [ DW_TAG_subprogram ]
!629 = metadata !{i32 786453, i32 0, metadata !"", i32 0, i32 0, i64 0, i64 0, i64 0, i32 0, null, metadata !630, i32 0, i32 0} ; [ DW_TAG_subroutine_type ]
!630 = metadata !{null, metadata !594, metadata !136}
!631 = metadata !{i32 786478, i32 0, metadata !61, metadata !"ap_uint", metadata !"ap_uint", metadata !"", metadata !62, i32 257, metadata !632, i1 false, i1 false, i32 0, i32 0, null, i32 256, i1 false, null, null, i32 0, metadata !78, i32 257} ; [ DW_TAG_subprogram ]
!632 = metadata !{i32 786453, i32 0, metadata !"", i32 0, i32 0, i64 0, i64 0, i64 0, i32 0, null, metadata !633, i32 0, i32 0} ; [ DW_TAG_subroutine_type ]
!633 = metadata !{null, metadata !594, metadata !140}
!634 = metadata !{i32 786478, i32 0, metadata !61, metadata !"ap_uint", metadata !"ap_uint", metadata !"", metadata !62, i32 259, metadata !635, i1 false, i1 false, i32 0, i32 0, null, i32 256, i1 false, null, null, i32 0, metadata !78, i32 259} ; [ DW_TAG_subprogram ]
!635 = metadata !{i32 786453, i32 0, metadata !"", i32 0, i32 0, i64 0, i64 0, i64 0, i32 0, null, metadata !636, i32 0, i32 0} ; [ DW_TAG_subroutine_type ]
!636 = metadata !{null, metadata !594, metadata !144}
!637 = metadata !{i32 786478, i32 0, metadata !61, metadata !"ap_uint", metadata !"ap_uint", metadata !"", metadata !62, i32 260, metadata !638, i1 false, i1 false, i32 0, i32 0, null, i32 256, i1 false, null, null, i32 0, metadata !78, i32 260} ; [ DW_TAG_subprogram ]
!638 = metadata !{i32 786453, i32 0, metadata !"", i32 0, i32 0, i64 0, i64 0, i64 0, i32 0, null, metadata !639, i32 0, i32 0} ; [ DW_TAG_subroutine_type ]
!639 = metadata !{null, metadata !594, metadata !144, metadata !95}
!640 = metadata !{i32 786478, i32 0, metadata !61, metadata !"operator=", metadata !"operator=", metadata !"_ZNV7ap_uintILi18EEaSERKS0_", metadata !62, i32 263, metadata !641, i1 false, i1 false, i32 0, i32 0, null, i32 256, i1 false, null, null, i32 0, metadata !78, i32 263} ; [ DW_TAG_subprogram ]
!641 = metadata !{i32 786453, i32 0, metadata !"", i32 0, i32 0, i64 0, i64 0, i64 0, i32 0, null, metadata !642, i32 0, i32 0} ; [ DW_TAG_subroutine_type ]
!642 = metadata !{null, metadata !643, metadata !645}
!643 = metadata !{i32 786447, i32 0, metadata !"", i32 0, i32 0, i64 64, i64 64, i64 0, i32 64, metadata !644} ; [ DW_TAG_pointer_type ]
!644 = metadata !{i32 786485, null, metadata !"", null, i32 0, i64 0, i64 0, i64 0, i32 0, metadata !61} ; [ DW_TAG_volatile_type ]
!645 = metadata !{i32 786448, null, null, null, i32 0, i64 0, i64 0, i64 0, i32 0, metadata !646} ; [ DW_TAG_reference_type ]
!646 = metadata !{i32 786470, null, metadata !"", null, i32 0, i64 0, i64 0, i64 0, i32 0, metadata !61} ; [ DW_TAG_const_type ]
!647 = metadata !{i32 786478, i32 0, metadata !61, metadata !"operator=", metadata !"operator=", metadata !"_ZNV7ap_uintILi18EEaSERVKS0_", metadata !62, i32 267, metadata !648, i1 false, i1 false, i32 0, i32 0, null, i32 256, i1 false, null, null, i32 0, metadata !78, i32 267} ; [ DW_TAG_subprogram ]
!648 = metadata !{i32 786453, i32 0, metadata !"", i32 0, i32 0, i64 0, i64 0, i64 0, i32 0, null, metadata !649, i32 0, i32 0} ; [ DW_TAG_subroutine_type ]
!649 = metadata !{null, metadata !643, metadata !650}
!650 = metadata !{i32 786448, null, null, null, i32 0, i64 0, i64 0, i64 0, i32 0, metadata !651} ; [ DW_TAG_reference_type ]
!651 = metadata !{i32 786470, null, metadata !"", null, i32 0, i64 0, i64 0, i64 0, i32 0, metadata !644} ; [ DW_TAG_const_type ]
!652 = metadata !{i32 786478, i32 0, metadata !61, metadata !"operator=", metadata !"operator=", metadata !"_ZN7ap_uintILi18EEaSERVKS0_", metadata !62, i32 271, metadata !653, i1 false, i1 false, i32 0, i32 0, null, i32 256, i1 false, null, null, i32 0, metadata !78, i32 271} ; [ DW_TAG_subprogram ]
!653 = metadata !{i32 786453, i32 0, metadata !"", i32 0, i32 0, i64 0, i64 0, i64 0, i32 0, null, metadata !654, i32 0, i32 0} ; [ DW_TAG_subroutine_type ]
!654 = metadata !{metadata !655, metadata !594, metadata !650}
!655 = metadata !{i32 786448, null, null, null, i32 0, i64 0, i64 0, i64 0, i32 0, metadata !61} ; [ DW_TAG_reference_type ]
!656 = metadata !{i32 786478, i32 0, metadata !61, metadata !"operator=", metadata !"operator=", metadata !"_ZN7ap_uintILi18EEaSERKS0_", metadata !62, i32 276, metadata !657, i1 false, i1 false, i32 0, i32 0, null, i32 256, i1 false, null, null, i32 0, metadata !78, i32 276} ; [ DW_TAG_subprogram ]
!657 = metadata !{i32 786453, i32 0, metadata !"", i32 0, i32 0, i64 0, i64 0, i64 0, i32 0, null, metadata !658, i32 0, i32 0} ; [ DW_TAG_subroutine_type ]
!658 = metadata !{metadata !655, metadata !594, metadata !645}
!659 = metadata !{metadata !590}
!660 = metadata !{i32 786447, null, metadata !"", null, i32 0, i64 64, i64 64, i64 0, i32 0, metadata !661} ; [ DW_TAG_pointer_type ]
!661 = metadata !{i32 786434, null, metadata !"ap_int<19>", metadata !62, i32 73, i64 32, i64 32, i32 0, i32 0, null, metadata !662, i32 0, null, metadata !994} ; [ DW_TAG_class_type ]
!662 = metadata !{metadata !663, metadata !664, metadata !668, metadata !929, metadata !932, metadata !935, metadata !938, metadata !941, metadata !944, metadata !947, metadata !950, metadata !953, metadata !956, metadata !959, metadata !962, metadata !965, metadata !968, metadata !971, metadata !974, metadata !981, metadata !986, metadata !990, metadata !993}
!663 = metadata !{i32 786460, metadata !661, null, metadata !62, i32 0, i64 0, i64 0, i64 0, i32 0, metadata !290} ; [ DW_TAG_inheritance ]
!664 = metadata !{i32 786478, i32 0, metadata !661, metadata !"ap_int", metadata !"ap_int", metadata !"", metadata !62, i32 76, metadata !665, i1 false, i1 false, i32 0, i32 0, null, i32 256, i1 false, null, null, i32 0, metadata !78, i32 76} ; [ DW_TAG_subprogram ]
!665 = metadata !{i32 786453, i32 0, metadata !"", i32 0, i32 0, i64 0, i64 0, i64 0, i32 0, null, metadata !666, i32 0, i32 0} ; [ DW_TAG_subroutine_type ]
!666 = metadata !{null, metadata !667}
!667 = metadata !{i32 786447, i32 0, metadata !"", i32 0, i32 0, i64 64, i64 64, i64 0, i32 64, metadata !661} ; [ DW_TAG_pointer_type ]
!668 = metadata !{i32 786478, i32 0, metadata !661, metadata !"ap_int<25, true>", metadata !"ap_int<25, true>", metadata !"", metadata !62, i32 120, metadata !669, i1 false, i1 false, i32 0, i32 0, null, i32 256, i1 false, null, metadata !698, i32 0, metadata !78, i32 120} ; [ DW_TAG_subprogram ]
!669 = metadata !{i32 786453, i32 0, metadata !"", i32 0, i32 0, i64 0, i64 0, i64 0, i32 0, null, metadata !670, i32 0, i32 0} ; [ DW_TAG_subroutine_type ]
!670 = metadata !{null, metadata !667, metadata !671}
!671 = metadata !{i32 786448, null, null, null, i32 0, i64 0, i64 0, i64 0, i32 0, metadata !672} ; [ DW_TAG_reference_type ]
!672 = metadata !{i32 786470, null, metadata !"", null, i32 0, i64 0, i64 0, i64 0, i32 0, metadata !673} ; [ DW_TAG_const_type ]
!673 = metadata !{i32 786434, null, metadata !"ap_int_base<25, true, true>", metadata !66, i32 1397, i64 32, i64 32, i32 0, i32 0, null, metadata !674, i32 0, null, metadata !927} ; [ DW_TAG_class_type ]
!674 = metadata !{metadata !675, metadata !691, metadata !695, metadata !700, metadata !706, metadata !709, metadata !712, metadata !715, metadata !718, metadata !721, metadata !724, metadata !727, metadata !730, metadata !733, metadata !736, metadata !739, metadata !742, metadata !745, metadata !748, metadata !751, metadata !755, metadata !758, metadata !761, metadata !762, metadata !766, metadata !769, metadata !772, metadata !775, metadata !778, metadata !781, metadata !784, metadata !787, metadata !790, metadata !793, metadata !796, metadata !799, metadata !808, metadata !811, metadata !814, metadata !817, metadata !820, metadata !823, metadata !826, metadata !829, metadata !832, metadata !835, metadata !838, metadata !841, metadata !844, metadata !845, metadata !849, metadata !852, metadata !853, metadata !854, metadata !855, metadata !856, metadata !857, metadata !860, metadata !861, metadata !864, metadata !865, metadata !866, metadata !867, metadata !868, metadata !869, metadata !872, metadata !873, metadata !874, metadata !877, metadata !878, metadata !881, metadata !882, metadata !886, metadata !890, metadata !891, metadata !894, metadata !895, metadata !899, metadata !900, metadata !901, metadata !902, metadata !905, metadata !906, metadata !907, metadata !908, metadata !909, metadata !910, metadata !911, metadata !912, metadata !913, metadata !914, metadata !915, metadata !916, metadata !919, metadata !922, metadata !925, metadata !926}
!675 = metadata !{i32 786460, metadata !673, null, metadata !66, i32 0, i64 0, i64 0, i64 0, i32 0, metadata !676} ; [ DW_TAG_inheritance ]
!676 = metadata !{i32 786434, null, metadata !"ssdm_int<25 + 1024 * 0, true>", metadata !70, i32 27, i64 32, i64 32, i32 0, i32 0, null, metadata !677, i32 0, null, metadata !689} ; [ DW_TAG_class_type ]
!677 = metadata !{metadata !678, metadata !680, metadata !684}
!678 = metadata !{i32 786445, metadata !676, metadata !"V", metadata !70, i32 27, i64 25, i64 32, i64 0, i32 0, metadata !679} ; [ DW_TAG_member ]
!679 = metadata !{i32 786468, null, metadata !"int25", null, i32 0, i64 25, i64 32, i64 0, i32 0, i32 5} ; [ DW_TAG_base_type ]
!680 = metadata !{i32 786478, i32 0, metadata !676, metadata !"ssdm_int", metadata !"ssdm_int", metadata !"", metadata !70, i32 27, metadata !681, i1 false, i1 false, i32 0, i32 0, null, i32 256, i1 false, null, null, i32 0, metadata !78, i32 27} ; [ DW_TAG_subprogram ]
!681 = metadata !{i32 786453, i32 0, metadata !"", i32 0, i32 0, i64 0, i64 0, i64 0, i32 0, null, metadata !682, i32 0, i32 0} ; [ DW_TAG_subroutine_type ]
!682 = metadata !{null, metadata !683}
!683 = metadata !{i32 786447, i32 0, metadata !"", i32 0, i32 0, i64 64, i64 64, i64 0, i32 64, metadata !676} ; [ DW_TAG_pointer_type ]
!684 = metadata !{i32 786478, i32 0, metadata !676, metadata !"ssdm_int", metadata !"ssdm_int", metadata !"", metadata !70, i32 27, metadata !685, i1 false, i1 false, i32 0, i32 0, null, i32 320, i1 false, null, null, i32 0, metadata !78, i32 27} ; [ DW_TAG_subprogram ]
!685 = metadata !{i32 786453, i32 0, metadata !"", i32 0, i32 0, i64 0, i64 0, i64 0, i32 0, null, metadata !686, i32 0, i32 0} ; [ DW_TAG_subroutine_type ]
!686 = metadata !{null, metadata !683, metadata !687}
!687 = metadata !{i32 786448, null, null, null, i32 0, i64 0, i64 0, i64 0, i32 0, metadata !688} ; [ DW_TAG_reference_type ]
!688 = metadata !{i32 786470, null, metadata !"", null, i32 0, i64 0, i64 0, i64 0, i32 0, metadata !676} ; [ DW_TAG_const_type ]
!689 = metadata !{metadata !690, metadata !303}
!690 = metadata !{i32 786480, null, metadata !"_AP_N", metadata !82, i64 25, null, i32 0, i32 0} ; [ DW_TAG_template_value_parameter ]
!691 = metadata !{i32 786478, i32 0, metadata !673, metadata !"ap_int_base", metadata !"ap_int_base", metadata !"", metadata !66, i32 1438, metadata !692, i1 false, i1 false, i32 0, i32 0, null, i32 256, i1 false, null, null, i32 0, metadata !78, i32 1438} ; [ DW_TAG_subprogram ]
!692 = metadata !{i32 786453, i32 0, metadata !"", i32 0, i32 0, i64 0, i64 0, i64 0, i32 0, null, metadata !693, i32 0, i32 0} ; [ DW_TAG_subroutine_type ]
!693 = metadata !{null, metadata !694}
!694 = metadata !{i32 786447, i32 0, metadata !"", i32 0, i32 0, i64 64, i64 64, i64 0, i32 64, metadata !673} ; [ DW_TAG_pointer_type ]
!695 = metadata !{i32 786478, i32 0, metadata !673, metadata !"ap_int_base<25, true>", metadata !"ap_int_base<25, true>", metadata !"", metadata !66, i32 1450, metadata !696, i1 false, i1 false, i32 0, i32 0, null, i32 256, i1 false, null, metadata !698, i32 0, metadata !78, i32 1450} ; [ DW_TAG_subprogram ]
!696 = metadata !{i32 786453, i32 0, metadata !"", i32 0, i32 0, i64 0, i64 0, i64 0, i32 0, null, metadata !697, i32 0, i32 0} ; [ DW_TAG_subroutine_type ]
!697 = metadata !{null, metadata !694, metadata !671}
!698 = metadata !{metadata !699, metadata !315}
!699 = metadata !{i32 786480, null, metadata !"_AP_W2", metadata !82, i64 25, null, i32 0, i32 0} ; [ DW_TAG_template_value_parameter ]
!700 = metadata !{i32 786478, i32 0, metadata !673, metadata !"ap_int_base<25, true>", metadata !"ap_int_base<25, true>", metadata !"", metadata !66, i32 1453, metadata !701, i1 false, i1 false, i32 0, i32 0, null, i32 256, i1 false, null, metadata !698, i32 0, metadata !78, i32 1453} ; [ DW_TAG_subprogram ]
!701 = metadata !{i32 786453, i32 0, metadata !"", i32 0, i32 0, i64 0, i64 0, i64 0, i32 0, null, metadata !702, i32 0, i32 0} ; [ DW_TAG_subroutine_type ]
!702 = metadata !{null, metadata !694, metadata !703}
!703 = metadata !{i32 786448, null, null, null, i32 0, i64 0, i64 0, i64 0, i32 0, metadata !704} ; [ DW_TAG_reference_type ]
!704 = metadata !{i32 786470, null, metadata !"", null, i32 0, i64 0, i64 0, i64 0, i32 0, metadata !705} ; [ DW_TAG_const_type ]
!705 = metadata !{i32 786485, null, metadata !"", null, i32 0, i64 0, i64 0, i64 0, i32 0, metadata !673} ; [ DW_TAG_volatile_type ]
!706 = metadata !{i32 786478, i32 0, metadata !673, metadata !"ap_int_base", metadata !"ap_int_base", metadata !"", metadata !66, i32 1460, metadata !707, i1 false, i1 false, i32 0, i32 0, null, i32 384, i1 false, null, null, i32 0, metadata !78, i32 1460} ; [ DW_TAG_subprogram ]
!707 = metadata !{i32 786453, i32 0, metadata !"", i32 0, i32 0, i64 0, i64 0, i64 0, i32 0, null, metadata !708, i32 0, i32 0} ; [ DW_TAG_subroutine_type ]
!708 = metadata !{null, metadata !694, metadata !84}
!709 = metadata !{i32 786478, i32 0, metadata !673, metadata !"ap_int_base", metadata !"ap_int_base", metadata !"", metadata !66, i32 1461, metadata !710, i1 false, i1 false, i32 0, i32 0, null, i32 384, i1 false, null, null, i32 0, metadata !78, i32 1461} ; [ DW_TAG_subprogram ]
!710 = metadata !{i32 786453, i32 0, metadata !"", i32 0, i32 0, i64 0, i64 0, i64 0, i32 0, null, metadata !711, i32 0, i32 0} ; [ DW_TAG_subroutine_type ]
!711 = metadata !{null, metadata !694, metadata !95}
!712 = metadata !{i32 786478, i32 0, metadata !673, metadata !"ap_int_base", metadata !"ap_int_base", metadata !"", metadata !66, i32 1462, metadata !713, i1 false, i1 false, i32 0, i32 0, null, i32 384, i1 false, null, null, i32 0, metadata !78, i32 1462} ; [ DW_TAG_subprogram ]
!713 = metadata !{i32 786453, i32 0, metadata !"", i32 0, i32 0, i64 0, i64 0, i64 0, i32 0, null, metadata !714, i32 0, i32 0} ; [ DW_TAG_subroutine_type ]
!714 = metadata !{null, metadata !694, metadata !99}
!715 = metadata !{i32 786478, i32 0, metadata !673, metadata !"ap_int_base", metadata !"ap_int_base", metadata !"", metadata !66, i32 1463, metadata !716, i1 false, i1 false, i32 0, i32 0, null, i32 384, i1 false, null, null, i32 0, metadata !78, i32 1463} ; [ DW_TAG_subprogram ]
!716 = metadata !{i32 786453, i32 0, metadata !"", i32 0, i32 0, i64 0, i64 0, i64 0, i32 0, null, metadata !717, i32 0, i32 0} ; [ DW_TAG_subroutine_type ]
!717 = metadata !{null, metadata !694, metadata !103}
!718 = metadata !{i32 786478, i32 0, metadata !673, metadata !"ap_int_base", metadata !"ap_int_base", metadata !"", metadata !66, i32 1464, metadata !719, i1 false, i1 false, i32 0, i32 0, null, i32 384, i1 false, null, null, i32 0, metadata !78, i32 1464} ; [ DW_TAG_subprogram ]
!719 = metadata !{i32 786453, i32 0, metadata !"", i32 0, i32 0, i64 0, i64 0, i64 0, i32 0, null, metadata !720, i32 0, i32 0} ; [ DW_TAG_subroutine_type ]
!720 = metadata !{null, metadata !694, metadata !107}
!721 = metadata !{i32 786478, i32 0, metadata !673, metadata !"ap_int_base", metadata !"ap_int_base", metadata !"", metadata !66, i32 1465, metadata !722, i1 false, i1 false, i32 0, i32 0, null, i32 384, i1 false, null, null, i32 0, metadata !78, i32 1465} ; [ DW_TAG_subprogram ]
!722 = metadata !{i32 786453, i32 0, metadata !"", i32 0, i32 0, i64 0, i64 0, i64 0, i32 0, null, metadata !723, i32 0, i32 0} ; [ DW_TAG_subroutine_type ]
!723 = metadata !{null, metadata !694, metadata !82}
!724 = metadata !{i32 786478, i32 0, metadata !673, metadata !"ap_int_base", metadata !"ap_int_base", metadata !"", metadata !66, i32 1466, metadata !725, i1 false, i1 false, i32 0, i32 0, null, i32 384, i1 false, null, null, i32 0, metadata !78, i32 1466} ; [ DW_TAG_subprogram ]
!725 = metadata !{i32 786453, i32 0, metadata !"", i32 0, i32 0, i64 0, i64 0, i64 0, i32 0, null, metadata !726, i32 0, i32 0} ; [ DW_TAG_subroutine_type ]
!726 = metadata !{null, metadata !694, metadata !114}
!727 = metadata !{i32 786478, i32 0, metadata !673, metadata !"ap_int_base", metadata !"ap_int_base", metadata !"", metadata !66, i32 1467, metadata !728, i1 false, i1 false, i32 0, i32 0, null, i32 384, i1 false, null, null, i32 0, metadata !78, i32 1467} ; [ DW_TAG_subprogram ]
!728 = metadata !{i32 786453, i32 0, metadata !"", i32 0, i32 0, i64 0, i64 0, i64 0, i32 0, null, metadata !729, i32 0, i32 0} ; [ DW_TAG_subroutine_type ]
!729 = metadata !{null, metadata !694, metadata !118}
!730 = metadata !{i32 786478, i32 0, metadata !673, metadata !"ap_int_base", metadata !"ap_int_base", metadata !"", metadata !66, i32 1468, metadata !731, i1 false, i1 false, i32 0, i32 0, null, i32 384, i1 false, null, null, i32 0, metadata !78, i32 1468} ; [ DW_TAG_subprogram ]
!731 = metadata !{i32 786453, i32 0, metadata !"", i32 0, i32 0, i64 0, i64 0, i64 0, i32 0, null, metadata !732, i32 0, i32 0} ; [ DW_TAG_subroutine_type ]
!732 = metadata !{null, metadata !694, metadata !122}
!733 = metadata !{i32 786478, i32 0, metadata !673, metadata !"ap_int_base", metadata !"ap_int_base", metadata !"", metadata !66, i32 1469, metadata !734, i1 false, i1 false, i32 0, i32 0, null, i32 384, i1 false, null, null, i32 0, metadata !78, i32 1469} ; [ DW_TAG_subprogram ]
!734 = metadata !{i32 786453, i32 0, metadata !"", i32 0, i32 0, i64 0, i64 0, i64 0, i32 0, null, metadata !735, i32 0, i32 0} ; [ DW_TAG_subroutine_type ]
!735 = metadata !{null, metadata !694, metadata !126}
!736 = metadata !{i32 786478, i32 0, metadata !673, metadata !"ap_int_base", metadata !"ap_int_base", metadata !"", metadata !66, i32 1470, metadata !737, i1 false, i1 false, i32 0, i32 0, null, i32 384, i1 false, null, null, i32 0, metadata !78, i32 1470} ; [ DW_TAG_subprogram ]
!737 = metadata !{i32 786453, i32 0, metadata !"", i32 0, i32 0, i64 0, i64 0, i64 0, i32 0, null, metadata !738, i32 0, i32 0} ; [ DW_TAG_subroutine_type ]
!738 = metadata !{null, metadata !694, metadata !131}
!739 = metadata !{i32 786478, i32 0, metadata !673, metadata !"ap_int_base", metadata !"ap_int_base", metadata !"", metadata !66, i32 1471, metadata !740, i1 false, i1 false, i32 0, i32 0, null, i32 384, i1 false, null, null, i32 0, metadata !78, i32 1471} ; [ DW_TAG_subprogram ]
!740 = metadata !{i32 786453, i32 0, metadata !"", i32 0, i32 0, i64 0, i64 0, i64 0, i32 0, null, metadata !741, i32 0, i32 0} ; [ DW_TAG_subroutine_type ]
!741 = metadata !{null, metadata !694, metadata !136}
!742 = metadata !{i32 786478, i32 0, metadata !673, metadata !"ap_int_base", metadata !"ap_int_base", metadata !"", metadata !66, i32 1472, metadata !743, i1 false, i1 false, i32 0, i32 0, null, i32 384, i1 false, null, null, i32 0, metadata !78, i32 1472} ; [ DW_TAG_subprogram ]
!743 = metadata !{i32 786453, i32 0, metadata !"", i32 0, i32 0, i64 0, i64 0, i64 0, i32 0, null, metadata !744, i32 0, i32 0} ; [ DW_TAG_subroutine_type ]
!744 = metadata !{null, metadata !694, metadata !140}
!745 = metadata !{i32 786478, i32 0, metadata !673, metadata !"ap_int_base", metadata !"ap_int_base", metadata !"", metadata !66, i32 1499, metadata !746, i1 false, i1 false, i32 0, i32 0, null, i32 256, i1 false, null, null, i32 0, metadata !78, i32 1499} ; [ DW_TAG_subprogram ]
!746 = metadata !{i32 786453, i32 0, metadata !"", i32 0, i32 0, i64 0, i64 0, i64 0, i32 0, null, metadata !747, i32 0, i32 0} ; [ DW_TAG_subroutine_type ]
!747 = metadata !{null, metadata !694, metadata !144}
!748 = metadata !{i32 786478, i32 0, metadata !673, metadata !"ap_int_base", metadata !"ap_int_base", metadata !"", metadata !66, i32 1506, metadata !749, i1 false, i1 false, i32 0, i32 0, null, i32 256, i1 false, null, null, i32 0, metadata !78, i32 1506} ; [ DW_TAG_subprogram ]
!749 = metadata !{i32 786453, i32 0, metadata !"", i32 0, i32 0, i64 0, i64 0, i64 0, i32 0, null, metadata !750, i32 0, i32 0} ; [ DW_TAG_subroutine_type ]
!750 = metadata !{null, metadata !694, metadata !144, metadata !95}
!751 = metadata !{i32 786478, i32 0, metadata !673, metadata !"read", metadata !"read", metadata !"_ZNV11ap_int_baseILi25ELb1ELb1EE4readEv", metadata !66, i32 1527, metadata !752, i1 false, i1 false, i32 0, i32 0, null, i32 256, i1 false, null, null, i32 0, metadata !78, i32 1527} ; [ DW_TAG_subprogram ]
!752 = metadata !{i32 786453, i32 0, metadata !"", i32 0, i32 0, i64 0, i64 0, i64 0, i32 0, null, metadata !753, i32 0, i32 0} ; [ DW_TAG_subroutine_type ]
!753 = metadata !{metadata !673, metadata !754}
!754 = metadata !{i32 786447, i32 0, metadata !"", i32 0, i32 0, i64 64, i64 64, i64 0, i32 64, metadata !705} ; [ DW_TAG_pointer_type ]
!755 = metadata !{i32 786478, i32 0, metadata !673, metadata !"write", metadata !"write", metadata !"_ZNV11ap_int_baseILi25ELb1ELb1EE5writeERKS0_", metadata !66, i32 1533, metadata !756, i1 false, i1 false, i32 0, i32 0, null, i32 256, i1 false, null, null, i32 0, metadata !78, i32 1533} ; [ DW_TAG_subprogram ]
!756 = metadata !{i32 786453, i32 0, metadata !"", i32 0, i32 0, i64 0, i64 0, i64 0, i32 0, null, metadata !757, i32 0, i32 0} ; [ DW_TAG_subroutine_type ]
!757 = metadata !{null, metadata !754, metadata !671}
!758 = metadata !{i32 786478, i32 0, metadata !673, metadata !"operator=", metadata !"operator=", metadata !"_ZNV11ap_int_baseILi25ELb1ELb1EEaSERVKS0_", metadata !66, i32 1545, metadata !759, i1 false, i1 false, i32 0, i32 0, null, i32 256, i1 false, null, null, i32 0, metadata !78, i32 1545} ; [ DW_TAG_subprogram ]
!759 = metadata !{i32 786453, i32 0, metadata !"", i32 0, i32 0, i64 0, i64 0, i64 0, i32 0, null, metadata !760, i32 0, i32 0} ; [ DW_TAG_subroutine_type ]
!760 = metadata !{null, metadata !754, metadata !703}
!761 = metadata !{i32 786478, i32 0, metadata !673, metadata !"operator=", metadata !"operator=", metadata !"_ZNV11ap_int_baseILi25ELb1ELb1EEaSERKS0_", metadata !66, i32 1554, metadata !756, i1 false, i1 false, i32 0, i32 0, null, i32 256, i1 false, null, null, i32 0, metadata !78, i32 1554} ; [ DW_TAG_subprogram ]
!762 = metadata !{i32 786478, i32 0, metadata !673, metadata !"operator=", metadata !"operator=", metadata !"_ZN11ap_int_baseILi25ELb1ELb1EEaSERVKS0_", metadata !66, i32 1577, metadata !763, i1 false, i1 false, i32 0, i32 0, null, i32 256, i1 false, null, null, i32 0, metadata !78, i32 1577} ; [ DW_TAG_subprogram ]
!763 = metadata !{i32 786453, i32 0, metadata !"", i32 0, i32 0, i64 0, i64 0, i64 0, i32 0, null, metadata !764, i32 0, i32 0} ; [ DW_TAG_subroutine_type ]
!764 = metadata !{metadata !765, metadata !694, metadata !703}
!765 = metadata !{i32 786448, null, null, null, i32 0, i64 0, i64 0, i64 0, i32 0, metadata !673} ; [ DW_TAG_reference_type ]
!766 = metadata !{i32 786478, i32 0, metadata !673, metadata !"operator=", metadata !"operator=", metadata !"_ZN11ap_int_baseILi25ELb1ELb1EEaSERKS0_", metadata !66, i32 1582, metadata !767, i1 false, i1 false, i32 0, i32 0, null, i32 256, i1 false, null, null, i32 0, metadata !78, i32 1582} ; [ DW_TAG_subprogram ]
!767 = metadata !{i32 786453, i32 0, metadata !"", i32 0, i32 0, i64 0, i64 0, i64 0, i32 0, null, metadata !768, i32 0, i32 0} ; [ DW_TAG_subroutine_type ]
!768 = metadata !{metadata !765, metadata !694, metadata !671}
!769 = metadata !{i32 786478, i32 0, metadata !673, metadata !"operator=", metadata !"operator=", metadata !"_ZN11ap_int_baseILi25ELb1ELb1EEaSEPKc", metadata !66, i32 1586, metadata !770, i1 false, i1 false, i32 0, i32 0, null, i32 256, i1 false, null, null, i32 0, metadata !78, i32 1586} ; [ DW_TAG_subprogram ]
!770 = metadata !{i32 786453, i32 0, metadata !"", i32 0, i32 0, i64 0, i64 0, i64 0, i32 0, null, metadata !771, i32 0, i32 0} ; [ DW_TAG_subroutine_type ]
!771 = metadata !{metadata !765, metadata !694, metadata !144}
!772 = metadata !{i32 786478, i32 0, metadata !673, metadata !"set", metadata !"set", metadata !"_ZN11ap_int_baseILi25ELb1ELb1EE3setEPKca", metadata !66, i32 1594, metadata !773, i1 false, i1 false, i32 0, i32 0, null, i32 256, i1 false, null, null, i32 0, metadata !78, i32 1594} ; [ DW_TAG_subprogram ]
!773 = metadata !{i32 786453, i32 0, metadata !"", i32 0, i32 0, i64 0, i64 0, i64 0, i32 0, null, metadata !774, i32 0, i32 0} ; [ DW_TAG_subroutine_type ]
!774 = metadata !{metadata !765, metadata !694, metadata !144, metadata !95}
!775 = metadata !{i32 786478, i32 0, metadata !673, metadata !"operator=", metadata !"operator=", metadata !"_ZN11ap_int_baseILi25ELb1ELb1EEaSEa", metadata !66, i32 1608, metadata !776, i1 false, i1 false, i32 0, i32 0, null, i32 256, i1 false, null, null, i32 0, metadata !78, i32 1608} ; [ DW_TAG_subprogram ]
!776 = metadata !{i32 786453, i32 0, metadata !"", i32 0, i32 0, i64 0, i64 0, i64 0, i32 0, null, metadata !777, i32 0, i32 0} ; [ DW_TAG_subroutine_type ]
!777 = metadata !{metadata !765, metadata !694, metadata !95}
!778 = metadata !{i32 786478, i32 0, metadata !673, metadata !"operator=", metadata !"operator=", metadata !"_ZN11ap_int_baseILi25ELb1ELb1EEaSEh", metadata !66, i32 1609, metadata !779, i1 false, i1 false, i32 0, i32 0, null, i32 256, i1 false, null, null, i32 0, metadata !78, i32 1609} ; [ DW_TAG_subprogram ]
!779 = metadata !{i32 786453, i32 0, metadata !"", i32 0, i32 0, i64 0, i64 0, i64 0, i32 0, null, metadata !780, i32 0, i32 0} ; [ DW_TAG_subroutine_type ]
!780 = metadata !{metadata !765, metadata !694, metadata !99}
!781 = metadata !{i32 786478, i32 0, metadata !673, metadata !"operator=", metadata !"operator=", metadata !"_ZN11ap_int_baseILi25ELb1ELb1EEaSEs", metadata !66, i32 1610, metadata !782, i1 false, i1 false, i32 0, i32 0, null, i32 256, i1 false, null, null, i32 0, metadata !78, i32 1610} ; [ DW_TAG_subprogram ]
!782 = metadata !{i32 786453, i32 0, metadata !"", i32 0, i32 0, i64 0, i64 0, i64 0, i32 0, null, metadata !783, i32 0, i32 0} ; [ DW_TAG_subroutine_type ]
!783 = metadata !{metadata !765, metadata !694, metadata !103}
!784 = metadata !{i32 786478, i32 0, metadata !673, metadata !"operator=", metadata !"operator=", metadata !"_ZN11ap_int_baseILi25ELb1ELb1EEaSEt", metadata !66, i32 1611, metadata !785, i1 false, i1 false, i32 0, i32 0, null, i32 256, i1 false, null, null, i32 0, metadata !78, i32 1611} ; [ DW_TAG_subprogram ]
!785 = metadata !{i32 786453, i32 0, metadata !"", i32 0, i32 0, i64 0, i64 0, i64 0, i32 0, null, metadata !786, i32 0, i32 0} ; [ DW_TAG_subroutine_type ]
!786 = metadata !{metadata !765, metadata !694, metadata !107}
!787 = metadata !{i32 786478, i32 0, metadata !673, metadata !"operator=", metadata !"operator=", metadata !"_ZN11ap_int_baseILi25ELb1ELb1EEaSEi", metadata !66, i32 1612, metadata !788, i1 false, i1 false, i32 0, i32 0, null, i32 256, i1 false, null, null, i32 0, metadata !78, i32 1612} ; [ DW_TAG_subprogram ]
!788 = metadata !{i32 786453, i32 0, metadata !"", i32 0, i32 0, i64 0, i64 0, i64 0, i32 0, null, metadata !789, i32 0, i32 0} ; [ DW_TAG_subroutine_type ]
!789 = metadata !{metadata !765, metadata !694, metadata !82}
!790 = metadata !{i32 786478, i32 0, metadata !673, metadata !"operator=", metadata !"operator=", metadata !"_ZN11ap_int_baseILi25ELb1ELb1EEaSEj", metadata !66, i32 1613, metadata !791, i1 false, i1 false, i32 0, i32 0, null, i32 256, i1 false, null, null, i32 0, metadata !78, i32 1613} ; [ DW_TAG_subprogram ]
!791 = metadata !{i32 786453, i32 0, metadata !"", i32 0, i32 0, i64 0, i64 0, i64 0, i32 0, null, metadata !792, i32 0, i32 0} ; [ DW_TAG_subroutine_type ]
!792 = metadata !{metadata !765, metadata !694, metadata !114}
!793 = metadata !{i32 786478, i32 0, metadata !673, metadata !"operator=", metadata !"operator=", metadata !"_ZN11ap_int_baseILi25ELb1ELb1EEaSEx", metadata !66, i32 1614, metadata !794, i1 false, i1 false, i32 0, i32 0, null, i32 256, i1 false, null, null, i32 0, metadata !78, i32 1614} ; [ DW_TAG_subprogram ]
!794 = metadata !{i32 786453, i32 0, metadata !"", i32 0, i32 0, i64 0, i64 0, i64 0, i32 0, null, metadata !795, i32 0, i32 0} ; [ DW_TAG_subroutine_type ]
!795 = metadata !{metadata !765, metadata !694, metadata !126}
!796 = metadata !{i32 786478, i32 0, metadata !673, metadata !"operator=", metadata !"operator=", metadata !"_ZN11ap_int_baseILi25ELb1ELb1EEaSEy", metadata !66, i32 1615, metadata !797, i1 false, i1 false, i32 0, i32 0, null, i32 256, i1 false, null, null, i32 0, metadata !78, i32 1615} ; [ DW_TAG_subprogram ]
!797 = metadata !{i32 786453, i32 0, metadata !"", i32 0, i32 0, i64 0, i64 0, i64 0, i32 0, null, metadata !798, i32 0, i32 0} ; [ DW_TAG_subroutine_type ]
!798 = metadata !{metadata !765, metadata !694, metadata !131}
!799 = metadata !{i32 786478, i32 0, metadata !673, metadata !"operator int", metadata !"operator int", metadata !"_ZNK11ap_int_baseILi25ELb1ELb1EEcviEv", metadata !66, i32 1653, metadata !800, i1 false, i1 false, i32 0, i32 0, null, i32 256, i1 false, null, null, i32 0, metadata !78, i32 1653} ; [ DW_TAG_subprogram ]
!800 = metadata !{i32 786453, i32 0, metadata !"", i32 0, i32 0, i64 0, i64 0, i64 0, i32 0, null, metadata !801, i32 0, i32 0} ; [ DW_TAG_subroutine_type ]
!801 = metadata !{metadata !802, metadata !807}
!802 = metadata !{i32 786454, metadata !673, metadata !"RetType", metadata !66, i32 1402, i64 0, i64 0, i64 0, i32 0, metadata !803} ; [ DW_TAG_typedef ]
!803 = metadata !{i32 786454, metadata !804, metadata !"Type", metadata !66, i32 1385, i64 0, i64 0, i64 0, i32 0, metadata !82} ; [ DW_TAG_typedef ]
!804 = metadata !{i32 786434, null, metadata !"retval<4, true>", metadata !66, i32 1384, i64 8, i64 8, i32 0, i32 0, null, metadata !209, i32 0, null, metadata !805} ; [ DW_TAG_class_type ]
!805 = metadata !{metadata !806, metadata !303}
!806 = metadata !{i32 786480, null, metadata !"_AP_N", metadata !82, i64 4, null, i32 0, i32 0} ; [ DW_TAG_template_value_parameter ]
!807 = metadata !{i32 786447, i32 0, metadata !"", i32 0, i32 0, i64 64, i64 64, i64 0, i32 64, metadata !672} ; [ DW_TAG_pointer_type ]
!808 = metadata !{i32 786478, i32 0, metadata !673, metadata !"to_bool", metadata !"to_bool", metadata !"_ZNK11ap_int_baseILi25ELb1ELb1EE7to_boolEv", metadata !66, i32 1659, metadata !809, i1 false, i1 false, i32 0, i32 0, null, i32 256, i1 false, null, null, i32 0, metadata !78, i32 1659} ; [ DW_TAG_subprogram ]
!809 = metadata !{i32 786453, i32 0, metadata !"", i32 0, i32 0, i64 0, i64 0, i64 0, i32 0, null, metadata !810, i32 0, i32 0} ; [ DW_TAG_subroutine_type ]
!810 = metadata !{metadata !84, metadata !807}
!811 = metadata !{i32 786478, i32 0, metadata !673, metadata !"to_uchar", metadata !"to_uchar", metadata !"_ZNK11ap_int_baseILi25ELb1ELb1EE8to_ucharEv", metadata !66, i32 1660, metadata !812, i1 false, i1 false, i32 0, i32 0, null, i32 256, i1 false, null, null, i32 0, metadata !78, i32 1660} ; [ DW_TAG_subprogram ]
!812 = metadata !{i32 786453, i32 0, metadata !"", i32 0, i32 0, i64 0, i64 0, i64 0, i32 0, null, metadata !813, i32 0, i32 0} ; [ DW_TAG_subroutine_type ]
!813 = metadata !{metadata !99, metadata !807}
!814 = metadata !{i32 786478, i32 0, metadata !673, metadata !"to_char", metadata !"to_char", metadata !"_ZNK11ap_int_baseILi25ELb1ELb1EE7to_charEv", metadata !66, i32 1661, metadata !815, i1 false, i1 false, i32 0, i32 0, null, i32 256, i1 false, null, null, i32 0, metadata !78, i32 1661} ; [ DW_TAG_subprogram ]
!815 = metadata !{i32 786453, i32 0, metadata !"", i32 0, i32 0, i64 0, i64 0, i64 0, i32 0, null, metadata !816, i32 0, i32 0} ; [ DW_TAG_subroutine_type ]
!816 = metadata !{metadata !95, metadata !807}
!817 = metadata !{i32 786478, i32 0, metadata !673, metadata !"to_ushort", metadata !"to_ushort", metadata !"_ZNK11ap_int_baseILi25ELb1ELb1EE9to_ushortEv", metadata !66, i32 1662, metadata !818, i1 false, i1 false, i32 0, i32 0, null, i32 256, i1 false, null, null, i32 0, metadata !78, i32 1662} ; [ DW_TAG_subprogram ]
!818 = metadata !{i32 786453, i32 0, metadata !"", i32 0, i32 0, i64 0, i64 0, i64 0, i32 0, null, metadata !819, i32 0, i32 0} ; [ DW_TAG_subroutine_type ]
!819 = metadata !{metadata !107, metadata !807}
!820 = metadata !{i32 786478, i32 0, metadata !673, metadata !"to_short", metadata !"to_short", metadata !"_ZNK11ap_int_baseILi25ELb1ELb1EE8to_shortEv", metadata !66, i32 1663, metadata !821, i1 false, i1 false, i32 0, i32 0, null, i32 256, i1 false, null, null, i32 0, metadata !78, i32 1663} ; [ DW_TAG_subprogram ]
!821 = metadata !{i32 786453, i32 0, metadata !"", i32 0, i32 0, i64 0, i64 0, i64 0, i32 0, null, metadata !822, i32 0, i32 0} ; [ DW_TAG_subroutine_type ]
!822 = metadata !{metadata !103, metadata !807}
!823 = metadata !{i32 786478, i32 0, metadata !673, metadata !"to_int", metadata !"to_int", metadata !"_ZNK11ap_int_baseILi25ELb1ELb1EE6to_intEv", metadata !66, i32 1664, metadata !824, i1 false, i1 false, i32 0, i32 0, null, i32 256, i1 false, null, null, i32 0, metadata !78, i32 1664} ; [ DW_TAG_subprogram ]
!824 = metadata !{i32 786453, i32 0, metadata !"", i32 0, i32 0, i64 0, i64 0, i64 0, i32 0, null, metadata !825, i32 0, i32 0} ; [ DW_TAG_subroutine_type ]
!825 = metadata !{metadata !82, metadata !807}
!826 = metadata !{i32 786478, i32 0, metadata !673, metadata !"to_uint", metadata !"to_uint", metadata !"_ZNK11ap_int_baseILi25ELb1ELb1EE7to_uintEv", metadata !66, i32 1665, metadata !827, i1 false, i1 false, i32 0, i32 0, null, i32 256, i1 false, null, null, i32 0, metadata !78, i32 1665} ; [ DW_TAG_subprogram ]
!827 = metadata !{i32 786453, i32 0, metadata !"", i32 0, i32 0, i64 0, i64 0, i64 0, i32 0, null, metadata !828, i32 0, i32 0} ; [ DW_TAG_subroutine_type ]
!828 = metadata !{metadata !114, metadata !807}
!829 = metadata !{i32 786478, i32 0, metadata !673, metadata !"to_long", metadata !"to_long", metadata !"_ZNK11ap_int_baseILi25ELb1ELb1EE7to_longEv", metadata !66, i32 1666, metadata !830, i1 false, i1 false, i32 0, i32 0, null, i32 256, i1 false, null, null, i32 0, metadata !78, i32 1666} ; [ DW_TAG_subprogram ]
!830 = metadata !{i32 786453, i32 0, metadata !"", i32 0, i32 0, i64 0, i64 0, i64 0, i32 0, null, metadata !831, i32 0, i32 0} ; [ DW_TAG_subroutine_type ]
!831 = metadata !{metadata !118, metadata !807}
!832 = metadata !{i32 786478, i32 0, metadata !673, metadata !"to_ulong", metadata !"to_ulong", metadata !"_ZNK11ap_int_baseILi25ELb1ELb1EE8to_ulongEv", metadata !66, i32 1667, metadata !833, i1 false, i1 false, i32 0, i32 0, null, i32 256, i1 false, null, null, i32 0, metadata !78, i32 1667} ; [ DW_TAG_subprogram ]
!833 = metadata !{i32 786453, i32 0, metadata !"", i32 0, i32 0, i64 0, i64 0, i64 0, i32 0, null, metadata !834, i32 0, i32 0} ; [ DW_TAG_subroutine_type ]
!834 = metadata !{metadata !122, metadata !807}
!835 = metadata !{i32 786478, i32 0, metadata !673, metadata !"to_int64", metadata !"to_int64", metadata !"_ZNK11ap_int_baseILi25ELb1ELb1EE8to_int64Ev", metadata !66, i32 1668, metadata !836, i1 false, i1 false, i32 0, i32 0, null, i32 256, i1 false, null, null, i32 0, metadata !78, i32 1668} ; [ DW_TAG_subprogram ]
!836 = metadata !{i32 786453, i32 0, metadata !"", i32 0, i32 0, i64 0, i64 0, i64 0, i32 0, null, metadata !837, i32 0, i32 0} ; [ DW_TAG_subroutine_type ]
!837 = metadata !{metadata !126, metadata !807}
!838 = metadata !{i32 786478, i32 0, metadata !673, metadata !"to_uint64", metadata !"to_uint64", metadata !"_ZNK11ap_int_baseILi25ELb1ELb1EE9to_uint64Ev", metadata !66, i32 1669, metadata !839, i1 false, i1 false, i32 0, i32 0, null, i32 256, i1 false, null, null, i32 0, metadata !78, i32 1669} ; [ DW_TAG_subprogram ]
!839 = metadata !{i32 786453, i32 0, metadata !"", i32 0, i32 0, i64 0, i64 0, i64 0, i32 0, null, metadata !840, i32 0, i32 0} ; [ DW_TAG_subroutine_type ]
!840 = metadata !{metadata !131, metadata !807}
!841 = metadata !{i32 786478, i32 0, metadata !673, metadata !"to_double", metadata !"to_double", metadata !"_ZNK11ap_int_baseILi25ELb1ELb1EE9to_doubleEv", metadata !66, i32 1670, metadata !842, i1 false, i1 false, i32 0, i32 0, null, i32 256, i1 false, null, null, i32 0, metadata !78, i32 1670} ; [ DW_TAG_subprogram ]
!842 = metadata !{i32 786453, i32 0, metadata !"", i32 0, i32 0, i64 0, i64 0, i64 0, i32 0, null, metadata !843, i32 0, i32 0} ; [ DW_TAG_subroutine_type ]
!843 = metadata !{metadata !140, metadata !807}
!844 = metadata !{i32 786478, i32 0, metadata !673, metadata !"length", metadata !"length", metadata !"_ZNK11ap_int_baseILi25ELb1ELb1EE6lengthEv", metadata !66, i32 1684, metadata !824, i1 false, i1 false, i32 0, i32 0, null, i32 256, i1 false, null, null, i32 0, metadata !78, i32 1684} ; [ DW_TAG_subprogram ]
!845 = metadata !{i32 786478, i32 0, metadata !673, metadata !"length", metadata !"length", metadata !"_ZNVK11ap_int_baseILi25ELb1ELb1EE6lengthEv", metadata !66, i32 1685, metadata !846, i1 false, i1 false, i32 0, i32 0, null, i32 256, i1 false, null, null, i32 0, metadata !78, i32 1685} ; [ DW_TAG_subprogram ]
!846 = metadata !{i32 786453, i32 0, metadata !"", i32 0, i32 0, i64 0, i64 0, i64 0, i32 0, null, metadata !847, i32 0, i32 0} ; [ DW_TAG_subroutine_type ]
!847 = metadata !{metadata !82, metadata !848}
!848 = metadata !{i32 786447, i32 0, metadata !"", i32 0, i32 0, i64 64, i64 64, i64 0, i32 64, metadata !704} ; [ DW_TAG_pointer_type ]
!849 = metadata !{i32 786478, i32 0, metadata !673, metadata !"reverse", metadata !"reverse", metadata !"_ZN11ap_int_baseILi25ELb1ELb1EE7reverseEv", metadata !66, i32 1690, metadata !850, i1 false, i1 false, i32 0, i32 0, null, i32 256, i1 false, null, null, i32 0, metadata !78, i32 1690} ; [ DW_TAG_subprogram ]
!850 = metadata !{i32 786453, i32 0, metadata !"", i32 0, i32 0, i64 0, i64 0, i64 0, i32 0, null, metadata !851, i32 0, i32 0} ; [ DW_TAG_subroutine_type ]
!851 = metadata !{metadata !765, metadata !694}
!852 = metadata !{i32 786478, i32 0, metadata !673, metadata !"iszero", metadata !"iszero", metadata !"_ZNK11ap_int_baseILi25ELb1ELb1EE6iszeroEv", metadata !66, i32 1696, metadata !809, i1 false, i1 false, i32 0, i32 0, null, i32 256, i1 false, null, null, i32 0, metadata !78, i32 1696} ; [ DW_TAG_subprogram ]
!853 = metadata !{i32 786478, i32 0, metadata !673, metadata !"is_zero", metadata !"is_zero", metadata !"_ZNK11ap_int_baseILi25ELb1ELb1EE7is_zeroEv", metadata !66, i32 1701, metadata !809, i1 false, i1 false, i32 0, i32 0, null, i32 256, i1 false, null, null, i32 0, metadata !78, i32 1701} ; [ DW_TAG_subprogram ]
!854 = metadata !{i32 786478, i32 0, metadata !673, metadata !"sign", metadata !"sign", metadata !"_ZNK11ap_int_baseILi25ELb1ELb1EE4signEv", metadata !66, i32 1706, metadata !809, i1 false, i1 false, i32 0, i32 0, null, i32 256, i1 false, null, null, i32 0, metadata !78, i32 1706} ; [ DW_TAG_subprogram ]
!855 = metadata !{i32 786478, i32 0, metadata !673, metadata !"clear", metadata !"clear", metadata !"_ZN11ap_int_baseILi25ELb1ELb1EE5clearEi", metadata !66, i32 1714, metadata !722, i1 false, i1 false, i32 0, i32 0, null, i32 256, i1 false, null, null, i32 0, metadata !78, i32 1714} ; [ DW_TAG_subprogram ]
!856 = metadata !{i32 786478, i32 0, metadata !673, metadata !"invert", metadata !"invert", metadata !"_ZN11ap_int_baseILi25ELb1ELb1EE6invertEi", metadata !66, i32 1720, metadata !722, i1 false, i1 false, i32 0, i32 0, null, i32 256, i1 false, null, null, i32 0, metadata !78, i32 1720} ; [ DW_TAG_subprogram ]
!857 = metadata !{i32 786478, i32 0, metadata !673, metadata !"test", metadata !"test", metadata !"_ZNK11ap_int_baseILi25ELb1ELb1EE4testEi", metadata !66, i32 1728, metadata !858, i1 false, i1 false, i32 0, i32 0, null, i32 256, i1 false, null, null, i32 0, metadata !78, i32 1728} ; [ DW_TAG_subprogram ]
!858 = metadata !{i32 786453, i32 0, metadata !"", i32 0, i32 0, i64 0, i64 0, i64 0, i32 0, null, metadata !859, i32 0, i32 0} ; [ DW_TAG_subroutine_type ]
!859 = metadata !{metadata !84, metadata !807, metadata !82}
!860 = metadata !{i32 786478, i32 0, metadata !673, metadata !"set", metadata !"set", metadata !"_ZN11ap_int_baseILi25ELb1ELb1EE3setEi", metadata !66, i32 1734, metadata !722, i1 false, i1 false, i32 0, i32 0, null, i32 256, i1 false, null, null, i32 0, metadata !78, i32 1734} ; [ DW_TAG_subprogram ]
!861 = metadata !{i32 786478, i32 0, metadata !673, metadata !"set", metadata !"set", metadata !"_ZN11ap_int_baseILi25ELb1ELb1EE3setEib", metadata !66, i32 1740, metadata !862, i1 false, i1 false, i32 0, i32 0, null, i32 256, i1 false, null, null, i32 0, metadata !78, i32 1740} ; [ DW_TAG_subprogram ]
!862 = metadata !{i32 786453, i32 0, metadata !"", i32 0, i32 0, i64 0, i64 0, i64 0, i32 0, null, metadata !863, i32 0, i32 0} ; [ DW_TAG_subroutine_type ]
!863 = metadata !{null, metadata !694, metadata !82, metadata !84}
!864 = metadata !{i32 786478, i32 0, metadata !673, metadata !"lrotate", metadata !"lrotate", metadata !"_ZN11ap_int_baseILi25ELb1ELb1EE7lrotateEi", metadata !66, i32 1747, metadata !722, i1 false, i1 false, i32 0, i32 0, null, i32 256, i1 false, null, null, i32 0, metadata !78, i32 1747} ; [ DW_TAG_subprogram ]
!865 = metadata !{i32 786478, i32 0, metadata !673, metadata !"rrotate", metadata !"rrotate", metadata !"_ZN11ap_int_baseILi25ELb1ELb1EE7rrotateEi", metadata !66, i32 1756, metadata !722, i1 false, i1 false, i32 0, i32 0, null, i32 256, i1 false, null, null, i32 0, metadata !78, i32 1756} ; [ DW_TAG_subprogram ]
!866 = metadata !{i32 786478, i32 0, metadata !673, metadata !"set_bit", metadata !"set_bit", metadata !"_ZN11ap_int_baseILi25ELb1ELb1EE7set_bitEib", metadata !66, i32 1764, metadata !862, i1 false, i1 false, i32 0, i32 0, null, i32 256, i1 false, null, null, i32 0, metadata !78, i32 1764} ; [ DW_TAG_subprogram ]
!867 = metadata !{i32 786478, i32 0, metadata !673, metadata !"get_bit", metadata !"get_bit", metadata !"_ZNK11ap_int_baseILi25ELb1ELb1EE7get_bitEi", metadata !66, i32 1769, metadata !858, i1 false, i1 false, i32 0, i32 0, null, i32 256, i1 false, null, null, i32 0, metadata !78, i32 1769} ; [ DW_TAG_subprogram ]
!868 = metadata !{i32 786478, i32 0, metadata !673, metadata !"b_not", metadata !"b_not", metadata !"_ZN11ap_int_baseILi25ELb1ELb1EE5b_notEv", metadata !66, i32 1774, metadata !692, i1 false, i1 false, i32 0, i32 0, null, i32 256, i1 false, null, null, i32 0, metadata !78, i32 1774} ; [ DW_TAG_subprogram ]
!869 = metadata !{i32 786478, i32 0, metadata !673, metadata !"countLeadingZeros", metadata !"countLeadingZeros", metadata !"_ZN11ap_int_baseILi25ELb1ELb1EE17countLeadingZerosEv", metadata !66, i32 1781, metadata !870, i1 false, i1 false, i32 0, i32 0, null, i32 256, i1 false, null, null, i32 0, metadata !78, i32 1781} ; [ DW_TAG_subprogram ]
!870 = metadata !{i32 786453, i32 0, metadata !"", i32 0, i32 0, i64 0, i64 0, i64 0, i32 0, null, metadata !871, i32 0, i32 0} ; [ DW_TAG_subroutine_type ]
!871 = metadata !{metadata !82, metadata !694}
!872 = metadata !{i32 786478, i32 0, metadata !673, metadata !"operator++", metadata !"operator++", metadata !"_ZN11ap_int_baseILi25ELb1ELb1EEppEv", metadata !66, i32 1838, metadata !850, i1 false, i1 false, i32 0, i32 0, null, i32 256, i1 false, null, null, i32 0, metadata !78, i32 1838} ; [ DW_TAG_subprogram ]
!873 = metadata !{i32 786478, i32 0, metadata !673, metadata !"operator--", metadata !"operator--", metadata !"_ZN11ap_int_baseILi25ELb1ELb1EEmmEv", metadata !66, i32 1842, metadata !850, i1 false, i1 false, i32 0, i32 0, null, i32 256, i1 false, null, null, i32 0, metadata !78, i32 1842} ; [ DW_TAG_subprogram ]
!874 = metadata !{i32 786478, i32 0, metadata !673, metadata !"operator++", metadata !"operator++", metadata !"_ZN11ap_int_baseILi25ELb1ELb1EEppEi", metadata !66, i32 1850, metadata !875, i1 false, i1 false, i32 0, i32 0, null, i32 256, i1 false, null, null, i32 0, metadata !78, i32 1850} ; [ DW_TAG_subprogram ]
!875 = metadata !{i32 786453, i32 0, metadata !"", i32 0, i32 0, i64 0, i64 0, i64 0, i32 0, null, metadata !876, i32 0, i32 0} ; [ DW_TAG_subroutine_type ]
!876 = metadata !{metadata !672, metadata !694, metadata !82}
!877 = metadata !{i32 786478, i32 0, metadata !673, metadata !"operator--", metadata !"operator--", metadata !"_ZN11ap_int_baseILi25ELb1ELb1EEmmEi", metadata !66, i32 1855, metadata !875, i1 false, i1 false, i32 0, i32 0, null, i32 256, i1 false, null, null, i32 0, metadata !78, i32 1855} ; [ DW_TAG_subprogram ]
!878 = metadata !{i32 786478, i32 0, metadata !673, metadata !"operator+", metadata !"operator+", metadata !"_ZNK11ap_int_baseILi25ELb1ELb1EEpsEv", metadata !66, i32 1864, metadata !879, i1 false, i1 false, i32 0, i32 0, null, i32 256, i1 false, null, null, i32 0, metadata !78, i32 1864} ; [ DW_TAG_subprogram ]
!879 = metadata !{i32 786453, i32 0, metadata !"", i32 0, i32 0, i64 0, i64 0, i64 0, i32 0, null, metadata !880, i32 0, i32 0} ; [ DW_TAG_subroutine_type ]
!880 = metadata !{metadata !673, metadata !807}
!881 = metadata !{i32 786478, i32 0, metadata !673, metadata !"operator!", metadata !"operator!", metadata !"_ZNK11ap_int_baseILi25ELb1ELb1EEntEv", metadata !66, i32 1870, metadata !809, i1 false, i1 false, i32 0, i32 0, null, i32 256, i1 false, null, null, i32 0, metadata !78, i32 1870} ; [ DW_TAG_subprogram ]
!882 = metadata !{i32 786478, i32 0, metadata !673, metadata !"operator-", metadata !"operator-", metadata !"_ZNK11ap_int_baseILi25ELb1ELb1EEngEv", metadata !66, i32 1875, metadata !883, i1 false, i1 false, i32 0, i32 0, null, i32 256, i1 false, null, null, i32 0, metadata !78, i32 1875} ; [ DW_TAG_subprogram ]
!883 = metadata !{i32 786453, i32 0, metadata !"", i32 0, i32 0, i64 0, i64 0, i64 0, i32 0, null, metadata !884, i32 0, i32 0} ; [ DW_TAG_subroutine_type ]
!884 = metadata !{metadata !885, metadata !807}
!885 = metadata !{i32 786434, null, metadata !"ap_int_base<26, true, true>", metadata !66, i32 650, i32 0, i32 0, i32 0, i32 4, null, null, i32 0} ; [ DW_TAG_class_type ]
!886 = metadata !{i32 786478, i32 0, metadata !673, metadata !"range", metadata !"range", metadata !"_ZN11ap_int_baseILi25ELb1ELb1EE5rangeEii", metadata !66, i32 2005, metadata !887, i1 false, i1 false, i32 0, i32 0, null, i32 256, i1 false, null, null, i32 0, metadata !78, i32 2005} ; [ DW_TAG_subprogram ]
!887 = metadata !{i32 786453, i32 0, metadata !"", i32 0, i32 0, i64 0, i64 0, i64 0, i32 0, null, metadata !888, i32 0, i32 0} ; [ DW_TAG_subroutine_type ]
!888 = metadata !{metadata !889, metadata !694, metadata !82, metadata !82}
!889 = metadata !{i32 786434, null, metadata !"ap_range_ref<25, true>", metadata !66, i32 923, i32 0, i32 0, i32 0, i32 4, null, null, i32 0} ; [ DW_TAG_class_type ]
!890 = metadata !{i32 786478, i32 0, metadata !673, metadata !"operator()", metadata !"operator()", metadata !"_ZN11ap_int_baseILi25ELb1ELb1EEclEii", metadata !66, i32 2011, metadata !887, i1 false, i1 false, i32 0, i32 0, null, i32 256, i1 false, null, null, i32 0, metadata !78, i32 2011} ; [ DW_TAG_subprogram ]
!891 = metadata !{i32 786478, i32 0, metadata !673, metadata !"range", metadata !"range", metadata !"_ZNK11ap_int_baseILi25ELb1ELb1EE5rangeEii", metadata !66, i32 2017, metadata !892, i1 false, i1 false, i32 0, i32 0, null, i32 256, i1 false, null, null, i32 0, metadata !78, i32 2017} ; [ DW_TAG_subprogram ]
!892 = metadata !{i32 786453, i32 0, metadata !"", i32 0, i32 0, i64 0, i64 0, i64 0, i32 0, null, metadata !893, i32 0, i32 0} ; [ DW_TAG_subroutine_type ]
!893 = metadata !{metadata !889, metadata !807, metadata !82, metadata !82}
!894 = metadata !{i32 786478, i32 0, metadata !673, metadata !"operator()", metadata !"operator()", metadata !"_ZNK11ap_int_baseILi25ELb1ELb1EEclEii", metadata !66, i32 2023, metadata !892, i1 false, i1 false, i32 0, i32 0, null, i32 256, i1 false, null, null, i32 0, metadata !78, i32 2023} ; [ DW_TAG_subprogram ]
!895 = metadata !{i32 786478, i32 0, metadata !673, metadata !"operator[]", metadata !"operator[]", metadata !"_ZN11ap_int_baseILi25ELb1ELb1EEixEi", metadata !66, i32 2042, metadata !896, i1 false, i1 false, i32 0, i32 0, null, i32 256, i1 false, null, null, i32 0, metadata !78, i32 2042} ; [ DW_TAG_subprogram ]
!896 = metadata !{i32 786453, i32 0, metadata !"", i32 0, i32 0, i64 0, i64 0, i64 0, i32 0, null, metadata !897, i32 0, i32 0} ; [ DW_TAG_subroutine_type ]
!897 = metadata !{metadata !898, metadata !694, metadata !82}
!898 = metadata !{i32 786434, null, metadata !"ap_bit_ref<25, true>", metadata !66, i32 1193, i32 0, i32 0, i32 0, i32 4, null, null, i32 0} ; [ DW_TAG_class_type ]
!899 = metadata !{i32 786478, i32 0, metadata !673, metadata !"operator[]", metadata !"operator[]", metadata !"_ZNK11ap_int_baseILi25ELb1ELb1EEixEi", metadata !66, i32 2056, metadata !858, i1 false, i1 false, i32 0, i32 0, null, i32 256, i1 false, null, null, i32 0, metadata !78, i32 2056} ; [ DW_TAG_subprogram ]
!900 = metadata !{i32 786478, i32 0, metadata !673, metadata !"bit", metadata !"bit", metadata !"_ZN11ap_int_baseILi25ELb1ELb1EE3bitEi", metadata !66, i32 2070, metadata !896, i1 false, i1 false, i32 0, i32 0, null, i32 256, i1 false, null, null, i32 0, metadata !78, i32 2070} ; [ DW_TAG_subprogram ]
!901 = metadata !{i32 786478, i32 0, metadata !673, metadata !"bit", metadata !"bit", metadata !"_ZNK11ap_int_baseILi25ELb1ELb1EE3bitEi", metadata !66, i32 2084, metadata !858, i1 false, i1 false, i32 0, i32 0, null, i32 256, i1 false, null, null, i32 0, metadata !78, i32 2084} ; [ DW_TAG_subprogram ]
!902 = metadata !{i32 786478, i32 0, metadata !673, metadata !"and_reduce", metadata !"and_reduce", metadata !"_ZN11ap_int_baseILi25ELb1ELb1EE10and_reduceEv", metadata !66, i32 2264, metadata !903, i1 false, i1 false, i32 0, i32 0, null, i32 256, i1 false, null, null, i32 0, metadata !78, i32 2264} ; [ DW_TAG_subprogram ]
!903 = metadata !{i32 786453, i32 0, metadata !"", i32 0, i32 0, i64 0, i64 0, i64 0, i32 0, null, metadata !904, i32 0, i32 0} ; [ DW_TAG_subroutine_type ]
!904 = metadata !{metadata !84, metadata !694}
!905 = metadata !{i32 786478, i32 0, metadata !673, metadata !"nand_reduce", metadata !"nand_reduce", metadata !"_ZN11ap_int_baseILi25ELb1ELb1EE11nand_reduceEv", metadata !66, i32 2267, metadata !903, i1 false, i1 false, i32 0, i32 0, null, i32 256, i1 false, null, null, i32 0, metadata !78, i32 2267} ; [ DW_TAG_subprogram ]
!906 = metadata !{i32 786478, i32 0, metadata !673, metadata !"or_reduce", metadata !"or_reduce", metadata !"_ZN11ap_int_baseILi25ELb1ELb1EE9or_reduceEv", metadata !66, i32 2270, metadata !903, i1 false, i1 false, i32 0, i32 0, null, i32 256, i1 false, null, null, i32 0, metadata !78, i32 2270} ; [ DW_TAG_subprogram ]
!907 = metadata !{i32 786478, i32 0, metadata !673, metadata !"nor_reduce", metadata !"nor_reduce", metadata !"_ZN11ap_int_baseILi25ELb1ELb1EE10nor_reduceEv", metadata !66, i32 2273, metadata !903, i1 false, i1 false, i32 0, i32 0, null, i32 256, i1 false, null, null, i32 0, metadata !78, i32 2273} ; [ DW_TAG_subprogram ]
!908 = metadata !{i32 786478, i32 0, metadata !673, metadata !"xor_reduce", metadata !"xor_reduce", metadata !"_ZN11ap_int_baseILi25ELb1ELb1EE10xor_reduceEv", metadata !66, i32 2276, metadata !903, i1 false, i1 false, i32 0, i32 0, null, i32 256, i1 false, null, null, i32 0, metadata !78, i32 2276} ; [ DW_TAG_subprogram ]
!909 = metadata !{i32 786478, i32 0, metadata !673, metadata !"xnor_reduce", metadata !"xnor_reduce", metadata !"_ZN11ap_int_baseILi25ELb1ELb1EE11xnor_reduceEv", metadata !66, i32 2279, metadata !903, i1 false, i1 false, i32 0, i32 0, null, i32 256, i1 false, null, null, i32 0, metadata !78, i32 2279} ; [ DW_TAG_subprogram ]
!910 = metadata !{i32 786478, i32 0, metadata !673, metadata !"and_reduce", metadata !"and_reduce", metadata !"_ZNK11ap_int_baseILi25ELb1ELb1EE10and_reduceEv", metadata !66, i32 2283, metadata !809, i1 false, i1 false, i32 0, i32 0, null, i32 256, i1 false, null, null, i32 0, metadata !78, i32 2283} ; [ DW_TAG_subprogram ]
!911 = metadata !{i32 786478, i32 0, metadata !673, metadata !"nand_reduce", metadata !"nand_reduce", metadata !"_ZNK11ap_int_baseILi25ELb1ELb1EE11nand_reduceEv", metadata !66, i32 2286, metadata !809, i1 false, i1 false, i32 0, i32 0, null, i32 256, i1 false, null, null, i32 0, metadata !78, i32 2286} ; [ DW_TAG_subprogram ]
!912 = metadata !{i32 786478, i32 0, metadata !673, metadata !"or_reduce", metadata !"or_reduce", metadata !"_ZNK11ap_int_baseILi25ELb1ELb1EE9or_reduceEv", metadata !66, i32 2289, metadata !809, i1 false, i1 false, i32 0, i32 0, null, i32 256, i1 false, null, null, i32 0, metadata !78, i32 2289} ; [ DW_TAG_subprogram ]
!913 = metadata !{i32 786478, i32 0, metadata !673, metadata !"nor_reduce", metadata !"nor_reduce", metadata !"_ZNK11ap_int_baseILi25ELb1ELb1EE10nor_reduceEv", metadata !66, i32 2292, metadata !809, i1 false, i1 false, i32 0, i32 0, null, i32 256, i1 false, null, null, i32 0, metadata !78, i32 2292} ; [ DW_TAG_subprogram ]
!914 = metadata !{i32 786478, i32 0, metadata !673, metadata !"xor_reduce", metadata !"xor_reduce", metadata !"_ZNK11ap_int_baseILi25ELb1ELb1EE10xor_reduceEv", metadata !66, i32 2295, metadata !809, i1 false, i1 false, i32 0, i32 0, null, i32 256, i1 false, null, null, i32 0, metadata !78, i32 2295} ; [ DW_TAG_subprogram ]
!915 = metadata !{i32 786478, i32 0, metadata !673, metadata !"xnor_reduce", metadata !"xnor_reduce", metadata !"_ZNK11ap_int_baseILi25ELb1ELb1EE11xnor_reduceEv", metadata !66, i32 2298, metadata !809, i1 false, i1 false, i32 0, i32 0, null, i32 256, i1 false, null, null, i32 0, metadata !78, i32 2298} ; [ DW_TAG_subprogram ]
!916 = metadata !{i32 786478, i32 0, metadata !673, metadata !"to_string", metadata !"to_string", metadata !"_ZNK11ap_int_baseILi25ELb1ELb1EE9to_stringEPci8BaseModeb", metadata !66, i32 2305, metadata !917, i1 false, i1 false, i32 0, i32 0, null, i32 256, i1 false, null, null, i32 0, metadata !78, i32 2305} ; [ DW_TAG_subprogram ]
!917 = metadata !{i32 786453, i32 0, metadata !"", i32 0, i32 0, i64 0, i64 0, i64 0, i32 0, null, metadata !918, i32 0, i32 0} ; [ DW_TAG_subroutine_type ]
!918 = metadata !{null, metadata !807, metadata !534, metadata !82, metadata !535, metadata !84}
!919 = metadata !{i32 786478, i32 0, metadata !673, metadata !"to_string", metadata !"to_string", metadata !"_ZNK11ap_int_baseILi25ELb1ELb1EE9to_stringE8BaseModeb", metadata !66, i32 2332, metadata !920, i1 false, i1 false, i32 0, i32 0, null, i32 256, i1 false, null, null, i32 0, metadata !78, i32 2332} ; [ DW_TAG_subprogram ]
!920 = metadata !{i32 786453, i32 0, metadata !"", i32 0, i32 0, i64 0, i64 0, i64 0, i32 0, null, metadata !921, i32 0, i32 0} ; [ DW_TAG_subroutine_type ]
!921 = metadata !{metadata !534, metadata !807, metadata !535, metadata !84}
!922 = metadata !{i32 786478, i32 0, metadata !673, metadata !"to_string", metadata !"to_string", metadata !"_ZNK11ap_int_baseILi25ELb1ELb1EE9to_stringEab", metadata !66, i32 2336, metadata !923, i1 false, i1 false, i32 0, i32 0, null, i32 256, i1 false, null, null, i32 0, metadata !78, i32 2336} ; [ DW_TAG_subprogram ]
!923 = metadata !{i32 786453, i32 0, metadata !"", i32 0, i32 0, i64 0, i64 0, i64 0, i32 0, null, metadata !924, i32 0, i32 0} ; [ DW_TAG_subroutine_type ]
!924 = metadata !{metadata !534, metadata !807, metadata !95, metadata !84}
!925 = metadata !{i32 786478, i32 0, metadata !673, metadata !"ap_int_base", metadata !"ap_int_base", metadata !"", metadata !66, i32 1397, metadata !696, i1 false, i1 false, i32 0, i32 0, null, i32 320, i1 false, null, null, i32 0, metadata !78, i32 1397} ; [ DW_TAG_subprogram ]
!926 = metadata !{i32 786478, i32 0, metadata !673, metadata !"~ap_int_base", metadata !"~ap_int_base", metadata !"", metadata !66, i32 1397, metadata !692, i1 false, i1 false, i32 0, i32 0, null, i32 320, i1 false, null, null, i32 0, metadata !78, i32 1397} ; [ DW_TAG_subprogram ]
!927 = metadata !{metadata !928, metadata !303, metadata !549}
!928 = metadata !{i32 786480, null, metadata !"_AP_W", metadata !82, i64 25, null, i32 0, i32 0} ; [ DW_TAG_template_value_parameter ]
!929 = metadata !{i32 786478, i32 0, metadata !661, metadata !"ap_int", metadata !"ap_int", metadata !"", metadata !62, i32 139, metadata !930, i1 false, i1 false, i32 0, i32 0, null, i32 256, i1 false, null, null, i32 0, metadata !78, i32 139} ; [ DW_TAG_subprogram ]
!930 = metadata !{i32 786453, i32 0, metadata !"", i32 0, i32 0, i64 0, i64 0, i64 0, i32 0, null, metadata !931, i32 0, i32 0} ; [ DW_TAG_subroutine_type ]
!931 = metadata !{null, metadata !667, metadata !84}
!932 = metadata !{i32 786478, i32 0, metadata !661, metadata !"ap_int", metadata !"ap_int", metadata !"", metadata !62, i32 140, metadata !933, i1 false, i1 false, i32 0, i32 0, null, i32 256, i1 false, null, null, i32 0, metadata !78, i32 140} ; [ DW_TAG_subprogram ]
!933 = metadata !{i32 786453, i32 0, metadata !"", i32 0, i32 0, i64 0, i64 0, i64 0, i32 0, null, metadata !934, i32 0, i32 0} ; [ DW_TAG_subroutine_type ]
!934 = metadata !{null, metadata !667, metadata !95}
!935 = metadata !{i32 786478, i32 0, metadata !661, metadata !"ap_int", metadata !"ap_int", metadata !"", metadata !62, i32 141, metadata !936, i1 false, i1 false, i32 0, i32 0, null, i32 256, i1 false, null, null, i32 0, metadata !78, i32 141} ; [ DW_TAG_subprogram ]
!936 = metadata !{i32 786453, i32 0, metadata !"", i32 0, i32 0, i64 0, i64 0, i64 0, i32 0, null, metadata !937, i32 0, i32 0} ; [ DW_TAG_subroutine_type ]
!937 = metadata !{null, metadata !667, metadata !99}
!938 = metadata !{i32 786478, i32 0, metadata !661, metadata !"ap_int", metadata !"ap_int", metadata !"", metadata !62, i32 142, metadata !939, i1 false, i1 false, i32 0, i32 0, null, i32 256, i1 false, null, null, i32 0, metadata !78, i32 142} ; [ DW_TAG_subprogram ]
!939 = metadata !{i32 786453, i32 0, metadata !"", i32 0, i32 0, i64 0, i64 0, i64 0, i32 0, null, metadata !940, i32 0, i32 0} ; [ DW_TAG_subroutine_type ]
!940 = metadata !{null, metadata !667, metadata !103}
!941 = metadata !{i32 786478, i32 0, metadata !661, metadata !"ap_int", metadata !"ap_int", metadata !"", metadata !62, i32 143, metadata !942, i1 false, i1 false, i32 0, i32 0, null, i32 256, i1 false, null, null, i32 0, metadata !78, i32 143} ; [ DW_TAG_subprogram ]
!942 = metadata !{i32 786453, i32 0, metadata !"", i32 0, i32 0, i64 0, i64 0, i64 0, i32 0, null, metadata !943, i32 0, i32 0} ; [ DW_TAG_subroutine_type ]
!943 = metadata !{null, metadata !667, metadata !107}
!944 = metadata !{i32 786478, i32 0, metadata !661, metadata !"ap_int", metadata !"ap_int", metadata !"", metadata !62, i32 144, metadata !945, i1 false, i1 false, i32 0, i32 0, null, i32 256, i1 false, null, null, i32 0, metadata !78, i32 144} ; [ DW_TAG_subprogram ]
!945 = metadata !{i32 786453, i32 0, metadata !"", i32 0, i32 0, i64 0, i64 0, i64 0, i32 0, null, metadata !946, i32 0, i32 0} ; [ DW_TAG_subroutine_type ]
!946 = metadata !{null, metadata !667, metadata !82}
!947 = metadata !{i32 786478, i32 0, metadata !661, metadata !"ap_int", metadata !"ap_int", metadata !"", metadata !62, i32 145, metadata !948, i1 false, i1 false, i32 0, i32 0, null, i32 256, i1 false, null, null, i32 0, metadata !78, i32 145} ; [ DW_TAG_subprogram ]
!948 = metadata !{i32 786453, i32 0, metadata !"", i32 0, i32 0, i64 0, i64 0, i64 0, i32 0, null, metadata !949, i32 0, i32 0} ; [ DW_TAG_subroutine_type ]
!949 = metadata !{null, metadata !667, metadata !114}
!950 = metadata !{i32 786478, i32 0, metadata !661, metadata !"ap_int", metadata !"ap_int", metadata !"", metadata !62, i32 146, metadata !951, i1 false, i1 false, i32 0, i32 0, null, i32 256, i1 false, null, null, i32 0, metadata !78, i32 146} ; [ DW_TAG_subprogram ]
!951 = metadata !{i32 786453, i32 0, metadata !"", i32 0, i32 0, i64 0, i64 0, i64 0, i32 0, null, metadata !952, i32 0, i32 0} ; [ DW_TAG_subroutine_type ]
!952 = metadata !{null, metadata !667, metadata !118}
!953 = metadata !{i32 786478, i32 0, metadata !661, metadata !"ap_int", metadata !"ap_int", metadata !"", metadata !62, i32 147, metadata !954, i1 false, i1 false, i32 0, i32 0, null, i32 256, i1 false, null, null, i32 0, metadata !78, i32 147} ; [ DW_TAG_subprogram ]
!954 = metadata !{i32 786453, i32 0, metadata !"", i32 0, i32 0, i64 0, i64 0, i64 0, i32 0, null, metadata !955, i32 0, i32 0} ; [ DW_TAG_subroutine_type ]
!955 = metadata !{null, metadata !667, metadata !122}
!956 = metadata !{i32 786478, i32 0, metadata !661, metadata !"ap_int", metadata !"ap_int", metadata !"", metadata !62, i32 148, metadata !957, i1 false, i1 false, i32 0, i32 0, null, i32 256, i1 false, null, null, i32 0, metadata !78, i32 148} ; [ DW_TAG_subprogram ]
!957 = metadata !{i32 786453, i32 0, metadata !"", i32 0, i32 0, i64 0, i64 0, i64 0, i32 0, null, metadata !958, i32 0, i32 0} ; [ DW_TAG_subroutine_type ]
!958 = metadata !{null, metadata !667, metadata !132}
!959 = metadata !{i32 786478, i32 0, metadata !661, metadata !"ap_int", metadata !"ap_int", metadata !"", metadata !62, i32 149, metadata !960, i1 false, i1 false, i32 0, i32 0, null, i32 256, i1 false, null, null, i32 0, metadata !78, i32 149} ; [ DW_TAG_subprogram ]
!960 = metadata !{i32 786453, i32 0, metadata !"", i32 0, i32 0, i64 0, i64 0, i64 0, i32 0, null, metadata !961, i32 0, i32 0} ; [ DW_TAG_subroutine_type ]
!961 = metadata !{null, metadata !667, metadata !127}
!962 = metadata !{i32 786478, i32 0, metadata !661, metadata !"ap_int", metadata !"ap_int", metadata !"", metadata !62, i32 150, metadata !963, i1 false, i1 false, i32 0, i32 0, null, i32 256, i1 false, null, null, i32 0, metadata !78, i32 150} ; [ DW_TAG_subprogram ]
!963 = metadata !{i32 786453, i32 0, metadata !"", i32 0, i32 0, i64 0, i64 0, i64 0, i32 0, null, metadata !964, i32 0, i32 0} ; [ DW_TAG_subroutine_type ]
!964 = metadata !{null, metadata !667, metadata !136}
!965 = metadata !{i32 786478, i32 0, metadata !661, metadata !"ap_int", metadata !"ap_int", metadata !"", metadata !62, i32 151, metadata !966, i1 false, i1 false, i32 0, i32 0, null, i32 256, i1 false, null, null, i32 0, metadata !78, i32 151} ; [ DW_TAG_subprogram ]
!966 = metadata !{i32 786453, i32 0, metadata !"", i32 0, i32 0, i64 0, i64 0, i64 0, i32 0, null, metadata !967, i32 0, i32 0} ; [ DW_TAG_subroutine_type ]
!967 = metadata !{null, metadata !667, metadata !140}
!968 = metadata !{i32 786478, i32 0, metadata !661, metadata !"ap_int", metadata !"ap_int", metadata !"", metadata !62, i32 153, metadata !969, i1 false, i1 false, i32 0, i32 0, null, i32 256, i1 false, null, null, i32 0, metadata !78, i32 153} ; [ DW_TAG_subprogram ]
!969 = metadata !{i32 786453, i32 0, metadata !"", i32 0, i32 0, i64 0, i64 0, i64 0, i32 0, null, metadata !970, i32 0, i32 0} ; [ DW_TAG_subroutine_type ]
!970 = metadata !{null, metadata !667, metadata !144}
!971 = metadata !{i32 786478, i32 0, metadata !661, metadata !"ap_int", metadata !"ap_int", metadata !"", metadata !62, i32 154, metadata !972, i1 false, i1 false, i32 0, i32 0, null, i32 256, i1 false, null, null, i32 0, metadata !78, i32 154} ; [ DW_TAG_subprogram ]
!972 = metadata !{i32 786453, i32 0, metadata !"", i32 0, i32 0, i64 0, i64 0, i64 0, i32 0, null, metadata !973, i32 0, i32 0} ; [ DW_TAG_subroutine_type ]
!973 = metadata !{null, metadata !667, metadata !144, metadata !95}
!974 = metadata !{i32 786478, i32 0, metadata !661, metadata !"operator=", metadata !"operator=", metadata !"_ZNV6ap_intILi19EEaSERKS0_", metadata !62, i32 158, metadata !975, i1 false, i1 false, i32 0, i32 0, null, i32 256, i1 false, null, null, i32 0, metadata !78, i32 158} ; [ DW_TAG_subprogram ]
!975 = metadata !{i32 786453, i32 0, metadata !"", i32 0, i32 0, i64 0, i64 0, i64 0, i32 0, null, metadata !976, i32 0, i32 0} ; [ DW_TAG_subroutine_type ]
!976 = metadata !{null, metadata !977, metadata !979}
!977 = metadata !{i32 786447, i32 0, metadata !"", i32 0, i32 0, i64 64, i64 64, i64 0, i32 64, metadata !978} ; [ DW_TAG_pointer_type ]
!978 = metadata !{i32 786485, null, metadata !"", null, i32 0, i64 0, i64 0, i64 0, i32 0, metadata !661} ; [ DW_TAG_volatile_type ]
!979 = metadata !{i32 786448, null, null, null, i32 0, i64 0, i64 0, i64 0, i32 0, metadata !980} ; [ DW_TAG_reference_type ]
!980 = metadata !{i32 786470, null, metadata !"", null, i32 0, i64 0, i64 0, i64 0, i32 0, metadata !661} ; [ DW_TAG_const_type ]
!981 = metadata !{i32 786478, i32 0, metadata !661, metadata !"operator=", metadata !"operator=", metadata !"_ZNV6ap_intILi19EEaSERVKS0_", metadata !62, i32 162, metadata !982, i1 false, i1 false, i32 0, i32 0, null, i32 256, i1 false, null, null, i32 0, metadata !78, i32 162} ; [ DW_TAG_subprogram ]
!982 = metadata !{i32 786453, i32 0, metadata !"", i32 0, i32 0, i64 0, i64 0, i64 0, i32 0, null, metadata !983, i32 0, i32 0} ; [ DW_TAG_subroutine_type ]
!983 = metadata !{null, metadata !977, metadata !984}
!984 = metadata !{i32 786448, null, null, null, i32 0, i64 0, i64 0, i64 0, i32 0, metadata !985} ; [ DW_TAG_reference_type ]
!985 = metadata !{i32 786470, null, metadata !"", null, i32 0, i64 0, i64 0, i64 0, i32 0, metadata !978} ; [ DW_TAG_const_type ]
!986 = metadata !{i32 786478, i32 0, metadata !661, metadata !"operator=", metadata !"operator=", metadata !"_ZN6ap_intILi19EEaSERVKS0_", metadata !62, i32 166, metadata !987, i1 false, i1 false, i32 0, i32 0, null, i32 256, i1 false, null, null, i32 0, metadata !78, i32 166} ; [ DW_TAG_subprogram ]
!987 = metadata !{i32 786453, i32 0, metadata !"", i32 0, i32 0, i64 0, i64 0, i64 0, i32 0, null, metadata !988, i32 0, i32 0} ; [ DW_TAG_subroutine_type ]
!988 = metadata !{metadata !989, metadata !667, metadata !984}
!989 = metadata !{i32 786448, null, null, null, i32 0, i64 0, i64 0, i64 0, i32 0, metadata !661} ; [ DW_TAG_reference_type ]
!990 = metadata !{i32 786478, i32 0, metadata !661, metadata !"operator=", metadata !"operator=", metadata !"_ZN6ap_intILi19EEaSERKS0_", metadata !62, i32 171, metadata !991, i1 false, i1 false, i32 0, i32 0, null, i32 256, i1 false, null, null, i32 0, metadata !78, i32 171} ; [ DW_TAG_subprogram ]
!991 = metadata !{i32 786453, i32 0, metadata !"", i32 0, i32 0, i64 0, i64 0, i64 0, i32 0, null, metadata !992, i32 0, i32 0} ; [ DW_TAG_subroutine_type ]
!992 = metadata !{metadata !989, metadata !667, metadata !979}
!993 = metadata !{i32 786478, i32 0, metadata !661, metadata !"~ap_int", metadata !"~ap_int", metadata !"", metadata !62, i32 73, metadata !665, i1 false, i1 false, i32 0, i32 0, null, i32 320, i1 false, null, null, i32 0, metadata !78, i32 73} ; [ DW_TAG_subprogram ]
!994 = metadata !{metadata !548}
!995 = metadata !{i32 786433, null, metadata !"", null, i32 0, i64 36, i64 32, i32 0, i32 0, metadata !996, metadata !1002, i32 0, i32 0} ; [ DW_TAG_array_type ]
!996 = metadata !{i32 786438, null, metadata !"ap_uint<18>", metadata !62, i32 180, i64 18, i64 32, i32 0, i32 0, null, metadata !997, i32 0, null, metadata !659} ; [ DW_TAG_class_field_type ]
!997 = metadata !{metadata !998}
!998 = metadata !{i32 786438, null, metadata !"ap_int_base<18, false, true>", metadata !66, i32 1397, i64 18, i64 32, i32 0, i32 0, null, metadata !999, i32 0, null, metadata !589} ; [ DW_TAG_class_field_type ]
!999 = metadata !{metadata !1000}
!1000 = metadata !{i32 786438, null, metadata !"ssdm_int<18 + 1024 * 0, false>", metadata !70, i32 20, i64 18, i64 32, i32 0, i32 0, null, metadata !1001, i32 0, null, metadata !80} ; [ DW_TAG_class_field_type ]
!1001 = metadata !{metadata !72}
!1002 = metadata !{metadata !1003}
!1003 = metadata !{i32 786465, i64 0, i64 1}      ; [ DW_TAG_subrange_type ]
!1004 = metadata !{i32 5, i32 27, metadata !56, null}
!1005 = metadata !{i32 790531, metadata !1006, metadata !"b.V", null, i32 5, metadata !1007, i32 0, i32 0} ; [ DW_TAG_arg_variable_field ]
!1006 = metadata !{i32 786689, metadata !56, metadata !"b", metadata !57, i32 33554437, metadata !660, i32 0, i32 0} ; [ DW_TAG_arg_variable ]
!1007 = metadata !{i32 786433, null, metadata !"", null, i32 0, i64 38, i64 32, i32 0, i32 0, metadata !1008, metadata !1002, i32 0, i32 0} ; [ DW_TAG_array_type ]
!1008 = metadata !{i32 786438, null, metadata !"ap_int<19>", metadata !62, i32 73, i64 19, i64 32, i32 0, i32 0, null, metadata !1009, i32 0, null, metadata !994} ; [ DW_TAG_class_field_type ]
!1009 = metadata !{metadata !1010}
!1010 = metadata !{i32 786438, null, metadata !"ap_int_base<19, true, true>", metadata !66, i32 1397, i64 19, i64 32, i32 0, i32 0, null, metadata !1011, i32 0, null, metadata !547} ; [ DW_TAG_class_field_type ]
!1011 = metadata !{metadata !1012}
!1012 = metadata !{i32 786438, null, metadata !"ssdm_int<19 + 1024 * 0, true>", metadata !70, i32 21, i64 19, i64 32, i32 0, i32 0, null, metadata !1013, i32 0, null, metadata !301} ; [ DW_TAG_class_field_type ]
!1013 = metadata !{metadata !295}
!1014 = metadata !{i32 5, i32 44, metadata !56, null}
!1015 = metadata !{i32 1450, i32 95, metadata !1016, metadata !1023}
!1016 = metadata !{i32 786443, metadata !1017, i32 1450, i32 93, metadata !66, i32 12} ; [ DW_TAG_lexical_block ]
!1017 = metadata !{i32 786478, i32 0, null, metadata !"ap_int_base<18, false>", metadata !"ap_int_base<18, false>", metadata !"_ZN11ap_int_baseILi25ELb1ELb1EEC2ILi18ELb0EEERKS_IXT_EXT0_EXleT_Li64EEE", metadata !66, i32 1450, metadata !1018, i1 false, i1 true, i32 0, i32 0, null, i32 256, i1 false, null, metadata !1020, null, metadata !78, i32 1450} ; [ DW_TAG_subprogram ]
!1018 = metadata !{i32 786453, i32 0, metadata !"", i32 0, i32 0, i64 0, i64 0, i64 0, i32 0, null, metadata !1019, i32 0, i32 0} ; [ DW_TAG_subroutine_type ]
!1019 = metadata !{null, metadata !694, metadata !158}
!1020 = metadata !{metadata !1021, metadata !1022}
!1021 = metadata !{i32 786480, null, metadata !"_AP_W2", metadata !82, i64 18, null, i32 0, i32 0} ; [ DW_TAG_template_value_parameter ]
!1022 = metadata !{i32 786480, null, metadata !"_AP_S2", metadata !84, i64 0, null, i32 0, i32 0} ; [ DW_TAG_template_value_parameter ]
!1023 = metadata !{i32 1450, i32 111, metadata !1024, metadata !1025}
!1024 = metadata !{i32 786478, i32 0, null, metadata !"ap_int_base<18, false>", metadata !"ap_int_base<18, false>", metadata !"_ZN11ap_int_baseILi25ELb1ELb1EEC1ILi18ELb0EEERKS_IXT_EXT0_EXleT_Li64EEE", metadata !66, i32 1450, metadata !1018, i1 false, i1 true, i32 0, i32 0, null, i32 256, i1 false, null, metadata !1020, null, metadata !78, i32 1450} ; [ DW_TAG_subprogram ]
!1025 = metadata !{i32 3365, i32 0, metadata !1026, metadata !1804}
!1026 = metadata !{i32 786443, metadata !1027, i32 3365, i32 256, metadata !66, i32 10} ; [ DW_TAG_lexical_block ]
!1027 = metadata !{i32 786478, i32 0, metadata !66, metadata !"operator*<18, false, 7, true>", metadata !"operator*<18, false, 7, true>", metadata !"_ZmlILi18ELb0ELi7ELb1EEN11ap_int_baseIXT_EXT0_EXleT_Li64EEE5RTypeIXT1_EXT2_EE4multERKS1_RKS0_IXT1_EXT2_EXleT1_Li64EEE", metadata !66, i32 3365, metadata !1028, i1 false, i1 true, i32 0, i32 0, null, i32 256, i1 false, null, metadata !1803, null, metadata !78, i32 3365} ; [ DW_TAG_subprogram ]
!1028 = metadata !{i32 786453, i32 0, metadata !"", i32 0, i32 0, i64 0, i64 0, i64 0, i32 0, null, metadata !1029, i32 0, i32 0} ; [ DW_TAG_subroutine_type ]
!1029 = metadata !{metadata !1030, metadata !158, metadata !1034}
!1030 = metadata !{i32 786454, metadata !1031, metadata !"mult", metadata !66, i32 1425, i64 0, i64 0, i64 0, i32 0, metadata !673} ; [ DW_TAG_typedef ]
!1031 = metadata !{i32 786434, metadata !65, metadata !"RType<7, true>", metadata !66, i32 1409, i64 8, i64 8, i32 0, i32 0, null, metadata !209, i32 0, null, metadata !1032} ; [ DW_TAG_class_type ]
!1032 = metadata !{metadata !1033, metadata !315}
!1033 = metadata !{i32 786480, null, metadata !"_AP_W2", metadata !82, i64 7, null, i32 0, i32 0} ; [ DW_TAG_template_value_parameter ]
!1034 = metadata !{i32 786448, null, null, null, i32 0, i64 0, i64 0, i64 0, i32 0, metadata !1035} ; [ DW_TAG_reference_type ]
!1035 = metadata !{i32 786470, null, metadata !"", null, i32 0, i64 0, i64 0, i64 0, i32 0, metadata !1036} ; [ DW_TAG_const_type ]
!1036 = metadata !{i32 786434, null, metadata !"ap_int_base<7, true, true>", metadata !66, i32 1397, i64 8, i64 8, i32 0, i32 0, null, metadata !1037, i32 0, null, metadata !1801} ; [ DW_TAG_class_type ]
!1037 = metadata !{metadata !1038, metadata !1054, metadata !1058, metadata !1061, metadata !1067, metadata !1070, metadata !1073, metadata !1076, metadata !1079, metadata !1082, metadata !1085, metadata !1088, metadata !1091, metadata !1094, metadata !1097, metadata !1100, metadata !1103, metadata !1106, metadata !1109, metadata !1112, metadata !1116, metadata !1119, metadata !1122, metadata !1123, metadata !1127, metadata !1130, metadata !1133, metadata !1136, metadata !1139, metadata !1142, metadata !1145, metadata !1148, metadata !1151, metadata !1154, metadata !1157, metadata !1160, metadata !1169, metadata !1172, metadata !1175, metadata !1178, metadata !1181, metadata !1184, metadata !1187, metadata !1190, metadata !1193, metadata !1196, metadata !1199, metadata !1202, metadata !1205, metadata !1206, metadata !1210, metadata !1213, metadata !1214, metadata !1215, metadata !1216, metadata !1217, metadata !1218, metadata !1221, metadata !1222, metadata !1225, metadata !1226, metadata !1227, metadata !1228, metadata !1229, metadata !1230, metadata !1233, metadata !1234, metadata !1235, metadata !1238, metadata !1239, metadata !1242, metadata !1243, metadata !1761, metadata !1765, metadata !1766, metadata !1769, metadata !1770, metadata !1774, metadata !1775, metadata !1776, metadata !1777, metadata !1780, metadata !1781, metadata !1782, metadata !1783, metadata !1784, metadata !1785, metadata !1786, metadata !1787, metadata !1788, metadata !1789, metadata !1790, metadata !1791, metadata !1794, metadata !1797, metadata !1800}
!1038 = metadata !{i32 786460, metadata !1036, null, metadata !66, i32 0, i64 0, i64 0, i64 0, i32 0, metadata !1039} ; [ DW_TAG_inheritance ]
!1039 = metadata !{i32 786434, null, metadata !"ssdm_int<7 + 1024 * 0, true>", metadata !70, i32 9, i64 8, i64 8, i32 0, i32 0, null, metadata !1040, i32 0, null, metadata !1052} ; [ DW_TAG_class_type ]
!1040 = metadata !{metadata !1041, metadata !1043, metadata !1047}
!1041 = metadata !{i32 786445, metadata !1039, metadata !"V", metadata !70, i32 9, i64 7, i64 8, i64 0, i32 0, metadata !1042} ; [ DW_TAG_member ]
!1042 = metadata !{i32 786468, null, metadata !"int7", null, i32 0, i64 7, i64 8, i64 0, i32 0, i32 5} ; [ DW_TAG_base_type ]
!1043 = metadata !{i32 786478, i32 0, metadata !1039, metadata !"ssdm_int", metadata !"ssdm_int", metadata !"", metadata !70, i32 9, metadata !1044, i1 false, i1 false, i32 0, i32 0, null, i32 256, i1 false, null, null, i32 0, metadata !78, i32 9} ; [ DW_TAG_subprogram ]
!1044 = metadata !{i32 786453, i32 0, metadata !"", i32 0, i32 0, i64 0, i64 0, i64 0, i32 0, null, metadata !1045, i32 0, i32 0} ; [ DW_TAG_subroutine_type ]
!1045 = metadata !{null, metadata !1046}
!1046 = metadata !{i32 786447, i32 0, metadata !"", i32 0, i32 0, i64 64, i64 64, i64 0, i32 64, metadata !1039} ; [ DW_TAG_pointer_type ]
!1047 = metadata !{i32 786478, i32 0, metadata !1039, metadata !"ssdm_int", metadata !"ssdm_int", metadata !"", metadata !70, i32 9, metadata !1048, i1 false, i1 false, i32 0, i32 0, null, i32 320, i1 false, null, null, i32 0, metadata !78, i32 9} ; [ DW_TAG_subprogram ]
!1048 = metadata !{i32 786453, i32 0, metadata !"", i32 0, i32 0, i64 0, i64 0, i64 0, i32 0, null, metadata !1049, i32 0, i32 0} ; [ DW_TAG_subroutine_type ]
!1049 = metadata !{null, metadata !1046, metadata !1050}
!1050 = metadata !{i32 786448, null, null, null, i32 0, i64 0, i64 0, i64 0, i32 0, metadata !1051} ; [ DW_TAG_reference_type ]
!1051 = metadata !{i32 786470, null, metadata !"", null, i32 0, i64 0, i64 0, i64 0, i32 0, metadata !1039} ; [ DW_TAG_const_type ]
!1052 = metadata !{metadata !1053, metadata !303}
!1053 = metadata !{i32 786480, null, metadata !"_AP_N", metadata !82, i64 7, null, i32 0, i32 0} ; [ DW_TAG_template_value_parameter ]
!1054 = metadata !{i32 786478, i32 0, metadata !1036, metadata !"ap_int_base", metadata !"ap_int_base", metadata !"", metadata !66, i32 1438, metadata !1055, i1 false, i1 false, i32 0, i32 0, null, i32 256, i1 false, null, null, i32 0, metadata !78, i32 1438} ; [ DW_TAG_subprogram ]
!1055 = metadata !{i32 786453, i32 0, metadata !"", i32 0, i32 0, i64 0, i64 0, i64 0, i32 0, null, metadata !1056, i32 0, i32 0} ; [ DW_TAG_subroutine_type ]
!1056 = metadata !{null, metadata !1057}
!1057 = metadata !{i32 786447, i32 0, metadata !"", i32 0, i32 0, i64 64, i64 64, i64 0, i32 64, metadata !1036} ; [ DW_TAG_pointer_type ]
!1058 = metadata !{i32 786478, i32 0, metadata !1036, metadata !"ap_int_base<7, true>", metadata !"ap_int_base<7, true>", metadata !"", metadata !66, i32 1450, metadata !1059, i1 false, i1 false, i32 0, i32 0, null, i32 256, i1 false, null, metadata !1032, i32 0, metadata !78, i32 1450} ; [ DW_TAG_subprogram ]
!1059 = metadata !{i32 786453, i32 0, metadata !"", i32 0, i32 0, i64 0, i64 0, i64 0, i32 0, null, metadata !1060, i32 0, i32 0} ; [ DW_TAG_subroutine_type ]
!1060 = metadata !{null, metadata !1057, metadata !1034}
!1061 = metadata !{i32 786478, i32 0, metadata !1036, metadata !"ap_int_base<7, true>", metadata !"ap_int_base<7, true>", metadata !"", metadata !66, i32 1453, metadata !1062, i1 false, i1 false, i32 0, i32 0, null, i32 256, i1 false, null, metadata !1032, i32 0, metadata !78, i32 1453} ; [ DW_TAG_subprogram ]
!1062 = metadata !{i32 786453, i32 0, metadata !"", i32 0, i32 0, i64 0, i64 0, i64 0, i32 0, null, metadata !1063, i32 0, i32 0} ; [ DW_TAG_subroutine_type ]
!1063 = metadata !{null, metadata !1057, metadata !1064}
!1064 = metadata !{i32 786448, null, null, null, i32 0, i64 0, i64 0, i64 0, i32 0, metadata !1065} ; [ DW_TAG_reference_type ]
!1065 = metadata !{i32 786470, null, metadata !"", null, i32 0, i64 0, i64 0, i64 0, i32 0, metadata !1066} ; [ DW_TAG_const_type ]
!1066 = metadata !{i32 786485, null, metadata !"", null, i32 0, i64 0, i64 0, i64 0, i32 0, metadata !1036} ; [ DW_TAG_volatile_type ]
!1067 = metadata !{i32 786478, i32 0, metadata !1036, metadata !"ap_int_base", metadata !"ap_int_base", metadata !"", metadata !66, i32 1460, metadata !1068, i1 false, i1 false, i32 0, i32 0, null, i32 384, i1 false, null, null, i32 0, metadata !78, i32 1460} ; [ DW_TAG_subprogram ]
!1068 = metadata !{i32 786453, i32 0, metadata !"", i32 0, i32 0, i64 0, i64 0, i64 0, i32 0, null, metadata !1069, i32 0, i32 0} ; [ DW_TAG_subroutine_type ]
!1069 = metadata !{null, metadata !1057, metadata !84}
!1070 = metadata !{i32 786478, i32 0, metadata !1036, metadata !"ap_int_base", metadata !"ap_int_base", metadata !"", metadata !66, i32 1461, metadata !1071, i1 false, i1 false, i32 0, i32 0, null, i32 384, i1 false, null, null, i32 0, metadata !78, i32 1461} ; [ DW_TAG_subprogram ]
!1071 = metadata !{i32 786453, i32 0, metadata !"", i32 0, i32 0, i64 0, i64 0, i64 0, i32 0, null, metadata !1072, i32 0, i32 0} ; [ DW_TAG_subroutine_type ]
!1072 = metadata !{null, metadata !1057, metadata !95}
!1073 = metadata !{i32 786478, i32 0, metadata !1036, metadata !"ap_int_base", metadata !"ap_int_base", metadata !"", metadata !66, i32 1462, metadata !1074, i1 false, i1 false, i32 0, i32 0, null, i32 384, i1 false, null, null, i32 0, metadata !78, i32 1462} ; [ DW_TAG_subprogram ]
!1074 = metadata !{i32 786453, i32 0, metadata !"", i32 0, i32 0, i64 0, i64 0, i64 0, i32 0, null, metadata !1075, i32 0, i32 0} ; [ DW_TAG_subroutine_type ]
!1075 = metadata !{null, metadata !1057, metadata !99}
!1076 = metadata !{i32 786478, i32 0, metadata !1036, metadata !"ap_int_base", metadata !"ap_int_base", metadata !"", metadata !66, i32 1463, metadata !1077, i1 false, i1 false, i32 0, i32 0, null, i32 384, i1 false, null, null, i32 0, metadata !78, i32 1463} ; [ DW_TAG_subprogram ]
!1077 = metadata !{i32 786453, i32 0, metadata !"", i32 0, i32 0, i64 0, i64 0, i64 0, i32 0, null, metadata !1078, i32 0, i32 0} ; [ DW_TAG_subroutine_type ]
!1078 = metadata !{null, metadata !1057, metadata !103}
!1079 = metadata !{i32 786478, i32 0, metadata !1036, metadata !"ap_int_base", metadata !"ap_int_base", metadata !"", metadata !66, i32 1464, metadata !1080, i1 false, i1 false, i32 0, i32 0, null, i32 384, i1 false, null, null, i32 0, metadata !78, i32 1464} ; [ DW_TAG_subprogram ]
!1080 = metadata !{i32 786453, i32 0, metadata !"", i32 0, i32 0, i64 0, i64 0, i64 0, i32 0, null, metadata !1081, i32 0, i32 0} ; [ DW_TAG_subroutine_type ]
!1081 = metadata !{null, metadata !1057, metadata !107}
!1082 = metadata !{i32 786478, i32 0, metadata !1036, metadata !"ap_int_base", metadata !"ap_int_base", metadata !"", metadata !66, i32 1465, metadata !1083, i1 false, i1 false, i32 0, i32 0, null, i32 384, i1 false, null, null, i32 0, metadata !78, i32 1465} ; [ DW_TAG_subprogram ]
!1083 = metadata !{i32 786453, i32 0, metadata !"", i32 0, i32 0, i64 0, i64 0, i64 0, i32 0, null, metadata !1084, i32 0, i32 0} ; [ DW_TAG_subroutine_type ]
!1084 = metadata !{null, metadata !1057, metadata !82}
!1085 = metadata !{i32 786478, i32 0, metadata !1036, metadata !"ap_int_base", metadata !"ap_int_base", metadata !"", metadata !66, i32 1466, metadata !1086, i1 false, i1 false, i32 0, i32 0, null, i32 384, i1 false, null, null, i32 0, metadata !78, i32 1466} ; [ DW_TAG_subprogram ]
!1086 = metadata !{i32 786453, i32 0, metadata !"", i32 0, i32 0, i64 0, i64 0, i64 0, i32 0, null, metadata !1087, i32 0, i32 0} ; [ DW_TAG_subroutine_type ]
!1087 = metadata !{null, metadata !1057, metadata !114}
!1088 = metadata !{i32 786478, i32 0, metadata !1036, metadata !"ap_int_base", metadata !"ap_int_base", metadata !"", metadata !66, i32 1467, metadata !1089, i1 false, i1 false, i32 0, i32 0, null, i32 384, i1 false, null, null, i32 0, metadata !78, i32 1467} ; [ DW_TAG_subprogram ]
!1089 = metadata !{i32 786453, i32 0, metadata !"", i32 0, i32 0, i64 0, i64 0, i64 0, i32 0, null, metadata !1090, i32 0, i32 0} ; [ DW_TAG_subroutine_type ]
!1090 = metadata !{null, metadata !1057, metadata !118}
!1091 = metadata !{i32 786478, i32 0, metadata !1036, metadata !"ap_int_base", metadata !"ap_int_base", metadata !"", metadata !66, i32 1468, metadata !1092, i1 false, i1 false, i32 0, i32 0, null, i32 384, i1 false, null, null, i32 0, metadata !78, i32 1468} ; [ DW_TAG_subprogram ]
!1092 = metadata !{i32 786453, i32 0, metadata !"", i32 0, i32 0, i64 0, i64 0, i64 0, i32 0, null, metadata !1093, i32 0, i32 0} ; [ DW_TAG_subroutine_type ]
!1093 = metadata !{null, metadata !1057, metadata !122}
!1094 = metadata !{i32 786478, i32 0, metadata !1036, metadata !"ap_int_base", metadata !"ap_int_base", metadata !"", metadata !66, i32 1469, metadata !1095, i1 false, i1 false, i32 0, i32 0, null, i32 384, i1 false, null, null, i32 0, metadata !78, i32 1469} ; [ DW_TAG_subprogram ]
!1095 = metadata !{i32 786453, i32 0, metadata !"", i32 0, i32 0, i64 0, i64 0, i64 0, i32 0, null, metadata !1096, i32 0, i32 0} ; [ DW_TAG_subroutine_type ]
!1096 = metadata !{null, metadata !1057, metadata !126}
!1097 = metadata !{i32 786478, i32 0, metadata !1036, metadata !"ap_int_base", metadata !"ap_int_base", metadata !"", metadata !66, i32 1470, metadata !1098, i1 false, i1 false, i32 0, i32 0, null, i32 384, i1 false, null, null, i32 0, metadata !78, i32 1470} ; [ DW_TAG_subprogram ]
!1098 = metadata !{i32 786453, i32 0, metadata !"", i32 0, i32 0, i64 0, i64 0, i64 0, i32 0, null, metadata !1099, i32 0, i32 0} ; [ DW_TAG_subroutine_type ]
!1099 = metadata !{null, metadata !1057, metadata !131}
!1100 = metadata !{i32 786478, i32 0, metadata !1036, metadata !"ap_int_base", metadata !"ap_int_base", metadata !"", metadata !66, i32 1471, metadata !1101, i1 false, i1 false, i32 0, i32 0, null, i32 384, i1 false, null, null, i32 0, metadata !78, i32 1471} ; [ DW_TAG_subprogram ]
!1101 = metadata !{i32 786453, i32 0, metadata !"", i32 0, i32 0, i64 0, i64 0, i64 0, i32 0, null, metadata !1102, i32 0, i32 0} ; [ DW_TAG_subroutine_type ]
!1102 = metadata !{null, metadata !1057, metadata !136}
!1103 = metadata !{i32 786478, i32 0, metadata !1036, metadata !"ap_int_base", metadata !"ap_int_base", metadata !"", metadata !66, i32 1472, metadata !1104, i1 false, i1 false, i32 0, i32 0, null, i32 384, i1 false, null, null, i32 0, metadata !78, i32 1472} ; [ DW_TAG_subprogram ]
!1104 = metadata !{i32 786453, i32 0, metadata !"", i32 0, i32 0, i64 0, i64 0, i64 0, i32 0, null, metadata !1105, i32 0, i32 0} ; [ DW_TAG_subroutine_type ]
!1105 = metadata !{null, metadata !1057, metadata !140}
!1106 = metadata !{i32 786478, i32 0, metadata !1036, metadata !"ap_int_base", metadata !"ap_int_base", metadata !"", metadata !66, i32 1499, metadata !1107, i1 false, i1 false, i32 0, i32 0, null, i32 256, i1 false, null, null, i32 0, metadata !78, i32 1499} ; [ DW_TAG_subprogram ]
!1107 = metadata !{i32 786453, i32 0, metadata !"", i32 0, i32 0, i64 0, i64 0, i64 0, i32 0, null, metadata !1108, i32 0, i32 0} ; [ DW_TAG_subroutine_type ]
!1108 = metadata !{null, metadata !1057, metadata !144}
!1109 = metadata !{i32 786478, i32 0, metadata !1036, metadata !"ap_int_base", metadata !"ap_int_base", metadata !"", metadata !66, i32 1506, metadata !1110, i1 false, i1 false, i32 0, i32 0, null, i32 256, i1 false, null, null, i32 0, metadata !78, i32 1506} ; [ DW_TAG_subprogram ]
!1110 = metadata !{i32 786453, i32 0, metadata !"", i32 0, i32 0, i64 0, i64 0, i64 0, i32 0, null, metadata !1111, i32 0, i32 0} ; [ DW_TAG_subroutine_type ]
!1111 = metadata !{null, metadata !1057, metadata !144, metadata !95}
!1112 = metadata !{i32 786478, i32 0, metadata !1036, metadata !"read", metadata !"read", metadata !"_ZNV11ap_int_baseILi7ELb1ELb1EE4readEv", metadata !66, i32 1527, metadata !1113, i1 false, i1 false, i32 0, i32 0, null, i32 256, i1 false, null, null, i32 0, metadata !78, i32 1527} ; [ DW_TAG_subprogram ]
!1113 = metadata !{i32 786453, i32 0, metadata !"", i32 0, i32 0, i64 0, i64 0, i64 0, i32 0, null, metadata !1114, i32 0, i32 0} ; [ DW_TAG_subroutine_type ]
!1114 = metadata !{metadata !1036, metadata !1115}
!1115 = metadata !{i32 786447, i32 0, metadata !"", i32 0, i32 0, i64 64, i64 64, i64 0, i32 64, metadata !1066} ; [ DW_TAG_pointer_type ]
!1116 = metadata !{i32 786478, i32 0, metadata !1036, metadata !"write", metadata !"write", metadata !"_ZNV11ap_int_baseILi7ELb1ELb1EE5writeERKS0_", metadata !66, i32 1533, metadata !1117, i1 false, i1 false, i32 0, i32 0, null, i32 256, i1 false, null, null, i32 0, metadata !78, i32 1533} ; [ DW_TAG_subprogram ]
!1117 = metadata !{i32 786453, i32 0, metadata !"", i32 0, i32 0, i64 0, i64 0, i64 0, i32 0, null, metadata !1118, i32 0, i32 0} ; [ DW_TAG_subroutine_type ]
!1118 = metadata !{null, metadata !1115, metadata !1034}
!1119 = metadata !{i32 786478, i32 0, metadata !1036, metadata !"operator=", metadata !"operator=", metadata !"_ZNV11ap_int_baseILi7ELb1ELb1EEaSERVKS0_", metadata !66, i32 1545, metadata !1120, i1 false, i1 false, i32 0, i32 0, null, i32 256, i1 false, null, null, i32 0, metadata !78, i32 1545} ; [ DW_TAG_subprogram ]
!1120 = metadata !{i32 786453, i32 0, metadata !"", i32 0, i32 0, i64 0, i64 0, i64 0, i32 0, null, metadata !1121, i32 0, i32 0} ; [ DW_TAG_subroutine_type ]
!1121 = metadata !{null, metadata !1115, metadata !1064}
!1122 = metadata !{i32 786478, i32 0, metadata !1036, metadata !"operator=", metadata !"operator=", metadata !"_ZNV11ap_int_baseILi7ELb1ELb1EEaSERKS0_", metadata !66, i32 1554, metadata !1117, i1 false, i1 false, i32 0, i32 0, null, i32 256, i1 false, null, null, i32 0, metadata !78, i32 1554} ; [ DW_TAG_subprogram ]
!1123 = metadata !{i32 786478, i32 0, metadata !1036, metadata !"operator=", metadata !"operator=", metadata !"_ZN11ap_int_baseILi7ELb1ELb1EEaSERVKS0_", metadata !66, i32 1577, metadata !1124, i1 false, i1 false, i32 0, i32 0, null, i32 256, i1 false, null, null, i32 0, metadata !78, i32 1577} ; [ DW_TAG_subprogram ]
!1124 = metadata !{i32 786453, i32 0, metadata !"", i32 0, i32 0, i64 0, i64 0, i64 0, i32 0, null, metadata !1125, i32 0, i32 0} ; [ DW_TAG_subroutine_type ]
!1125 = metadata !{metadata !1126, metadata !1057, metadata !1064}
!1126 = metadata !{i32 786448, null, null, null, i32 0, i64 0, i64 0, i64 0, i32 0, metadata !1036} ; [ DW_TAG_reference_type ]
!1127 = metadata !{i32 786478, i32 0, metadata !1036, metadata !"operator=", metadata !"operator=", metadata !"_ZN11ap_int_baseILi7ELb1ELb1EEaSERKS0_", metadata !66, i32 1582, metadata !1128, i1 false, i1 false, i32 0, i32 0, null, i32 256, i1 false, null, null, i32 0, metadata !78, i32 1582} ; [ DW_TAG_subprogram ]
!1128 = metadata !{i32 786453, i32 0, metadata !"", i32 0, i32 0, i64 0, i64 0, i64 0, i32 0, null, metadata !1129, i32 0, i32 0} ; [ DW_TAG_subroutine_type ]
!1129 = metadata !{metadata !1126, metadata !1057, metadata !1034}
!1130 = metadata !{i32 786478, i32 0, metadata !1036, metadata !"operator=", metadata !"operator=", metadata !"_ZN11ap_int_baseILi7ELb1ELb1EEaSEPKc", metadata !66, i32 1586, metadata !1131, i1 false, i1 false, i32 0, i32 0, null, i32 256, i1 false, null, null, i32 0, metadata !78, i32 1586} ; [ DW_TAG_subprogram ]
!1131 = metadata !{i32 786453, i32 0, metadata !"", i32 0, i32 0, i64 0, i64 0, i64 0, i32 0, null, metadata !1132, i32 0, i32 0} ; [ DW_TAG_subroutine_type ]
!1132 = metadata !{metadata !1126, metadata !1057, metadata !144}
!1133 = metadata !{i32 786478, i32 0, metadata !1036, metadata !"set", metadata !"set", metadata !"_ZN11ap_int_baseILi7ELb1ELb1EE3setEPKca", metadata !66, i32 1594, metadata !1134, i1 false, i1 false, i32 0, i32 0, null, i32 256, i1 false, null, null, i32 0, metadata !78, i32 1594} ; [ DW_TAG_subprogram ]
!1134 = metadata !{i32 786453, i32 0, metadata !"", i32 0, i32 0, i64 0, i64 0, i64 0, i32 0, null, metadata !1135, i32 0, i32 0} ; [ DW_TAG_subroutine_type ]
!1135 = metadata !{metadata !1126, metadata !1057, metadata !144, metadata !95}
!1136 = metadata !{i32 786478, i32 0, metadata !1036, metadata !"operator=", metadata !"operator=", metadata !"_ZN11ap_int_baseILi7ELb1ELb1EEaSEa", metadata !66, i32 1608, metadata !1137, i1 false, i1 false, i32 0, i32 0, null, i32 256, i1 false, null, null, i32 0, metadata !78, i32 1608} ; [ DW_TAG_subprogram ]
!1137 = metadata !{i32 786453, i32 0, metadata !"", i32 0, i32 0, i64 0, i64 0, i64 0, i32 0, null, metadata !1138, i32 0, i32 0} ; [ DW_TAG_subroutine_type ]
!1138 = metadata !{metadata !1126, metadata !1057, metadata !95}
!1139 = metadata !{i32 786478, i32 0, metadata !1036, metadata !"operator=", metadata !"operator=", metadata !"_ZN11ap_int_baseILi7ELb1ELb1EEaSEh", metadata !66, i32 1609, metadata !1140, i1 false, i1 false, i32 0, i32 0, null, i32 256, i1 false, null, null, i32 0, metadata !78, i32 1609} ; [ DW_TAG_subprogram ]
!1140 = metadata !{i32 786453, i32 0, metadata !"", i32 0, i32 0, i64 0, i64 0, i64 0, i32 0, null, metadata !1141, i32 0, i32 0} ; [ DW_TAG_subroutine_type ]
!1141 = metadata !{metadata !1126, metadata !1057, metadata !99}
!1142 = metadata !{i32 786478, i32 0, metadata !1036, metadata !"operator=", metadata !"operator=", metadata !"_ZN11ap_int_baseILi7ELb1ELb1EEaSEs", metadata !66, i32 1610, metadata !1143, i1 false, i1 false, i32 0, i32 0, null, i32 256, i1 false, null, null, i32 0, metadata !78, i32 1610} ; [ DW_TAG_subprogram ]
!1143 = metadata !{i32 786453, i32 0, metadata !"", i32 0, i32 0, i64 0, i64 0, i64 0, i32 0, null, metadata !1144, i32 0, i32 0} ; [ DW_TAG_subroutine_type ]
!1144 = metadata !{metadata !1126, metadata !1057, metadata !103}
!1145 = metadata !{i32 786478, i32 0, metadata !1036, metadata !"operator=", metadata !"operator=", metadata !"_ZN11ap_int_baseILi7ELb1ELb1EEaSEt", metadata !66, i32 1611, metadata !1146, i1 false, i1 false, i32 0, i32 0, null, i32 256, i1 false, null, null, i32 0, metadata !78, i32 1611} ; [ DW_TAG_subprogram ]
!1146 = metadata !{i32 786453, i32 0, metadata !"", i32 0, i32 0, i64 0, i64 0, i64 0, i32 0, null, metadata !1147, i32 0, i32 0} ; [ DW_TAG_subroutine_type ]
!1147 = metadata !{metadata !1126, metadata !1057, metadata !107}
!1148 = metadata !{i32 786478, i32 0, metadata !1036, metadata !"operator=", metadata !"operator=", metadata !"_ZN11ap_int_baseILi7ELb1ELb1EEaSEi", metadata !66, i32 1612, metadata !1149, i1 false, i1 false, i32 0, i32 0, null, i32 256, i1 false, null, null, i32 0, metadata !78, i32 1612} ; [ DW_TAG_subprogram ]
!1149 = metadata !{i32 786453, i32 0, metadata !"", i32 0, i32 0, i64 0, i64 0, i64 0, i32 0, null, metadata !1150, i32 0, i32 0} ; [ DW_TAG_subroutine_type ]
!1150 = metadata !{metadata !1126, metadata !1057, metadata !82}
!1151 = metadata !{i32 786478, i32 0, metadata !1036, metadata !"operator=", metadata !"operator=", metadata !"_ZN11ap_int_baseILi7ELb1ELb1EEaSEj", metadata !66, i32 1613, metadata !1152, i1 false, i1 false, i32 0, i32 0, null, i32 256, i1 false, null, null, i32 0, metadata !78, i32 1613} ; [ DW_TAG_subprogram ]
!1152 = metadata !{i32 786453, i32 0, metadata !"", i32 0, i32 0, i64 0, i64 0, i64 0, i32 0, null, metadata !1153, i32 0, i32 0} ; [ DW_TAG_subroutine_type ]
!1153 = metadata !{metadata !1126, metadata !1057, metadata !114}
!1154 = metadata !{i32 786478, i32 0, metadata !1036, metadata !"operator=", metadata !"operator=", metadata !"_ZN11ap_int_baseILi7ELb1ELb1EEaSEx", metadata !66, i32 1614, metadata !1155, i1 false, i1 false, i32 0, i32 0, null, i32 256, i1 false, null, null, i32 0, metadata !78, i32 1614} ; [ DW_TAG_subprogram ]
!1155 = metadata !{i32 786453, i32 0, metadata !"", i32 0, i32 0, i64 0, i64 0, i64 0, i32 0, null, metadata !1156, i32 0, i32 0} ; [ DW_TAG_subroutine_type ]
!1156 = metadata !{metadata !1126, metadata !1057, metadata !126}
!1157 = metadata !{i32 786478, i32 0, metadata !1036, metadata !"operator=", metadata !"operator=", metadata !"_ZN11ap_int_baseILi7ELb1ELb1EEaSEy", metadata !66, i32 1615, metadata !1158, i1 false, i1 false, i32 0, i32 0, null, i32 256, i1 false, null, null, i32 0, metadata !78, i32 1615} ; [ DW_TAG_subprogram ]
!1158 = metadata !{i32 786453, i32 0, metadata !"", i32 0, i32 0, i64 0, i64 0, i64 0, i32 0, null, metadata !1159, i32 0, i32 0} ; [ DW_TAG_subroutine_type ]
!1159 = metadata !{metadata !1126, metadata !1057, metadata !131}
!1160 = metadata !{i32 786478, i32 0, metadata !1036, metadata !"operator signed char", metadata !"operator signed char", metadata !"_ZNK11ap_int_baseILi7ELb1ELb1EEcvaEv", metadata !66, i32 1653, metadata !1161, i1 false, i1 false, i32 0, i32 0, null, i32 256, i1 false, null, null, i32 0, metadata !78, i32 1653} ; [ DW_TAG_subprogram ]
!1161 = metadata !{i32 786453, i32 0, metadata !"", i32 0, i32 0, i64 0, i64 0, i64 0, i32 0, null, metadata !1162, i32 0, i32 0} ; [ DW_TAG_subroutine_type ]
!1162 = metadata !{metadata !1163, metadata !1168}
!1163 = metadata !{i32 786454, metadata !1036, metadata !"RetType", metadata !66, i32 1402, i64 0, i64 0, i64 0, i32 0, metadata !1164} ; [ DW_TAG_typedef ]
!1164 = metadata !{i32 786454, metadata !1165, metadata !"Type", metadata !66, i32 1367, i64 0, i64 0, i64 0, i32 0, metadata !95} ; [ DW_TAG_typedef ]
!1165 = metadata !{i32 786434, null, metadata !"retval<1, true>", metadata !66, i32 1366, i64 8, i64 8, i32 0, i32 0, null, metadata !209, i32 0, null, metadata !1166} ; [ DW_TAG_class_type ]
!1166 = metadata !{metadata !1167, metadata !303}
!1167 = metadata !{i32 786480, null, metadata !"_AP_N", metadata !82, i64 1, null, i32 0, i32 0} ; [ DW_TAG_template_value_parameter ]
!1168 = metadata !{i32 786447, i32 0, metadata !"", i32 0, i32 0, i64 64, i64 64, i64 0, i32 64, metadata !1035} ; [ DW_TAG_pointer_type ]
!1169 = metadata !{i32 786478, i32 0, metadata !1036, metadata !"to_bool", metadata !"to_bool", metadata !"_ZNK11ap_int_baseILi7ELb1ELb1EE7to_boolEv", metadata !66, i32 1659, metadata !1170, i1 false, i1 false, i32 0, i32 0, null, i32 256, i1 false, null, null, i32 0, metadata !78, i32 1659} ; [ DW_TAG_subprogram ]
!1170 = metadata !{i32 786453, i32 0, metadata !"", i32 0, i32 0, i64 0, i64 0, i64 0, i32 0, null, metadata !1171, i32 0, i32 0} ; [ DW_TAG_subroutine_type ]
!1171 = metadata !{metadata !84, metadata !1168}
!1172 = metadata !{i32 786478, i32 0, metadata !1036, metadata !"to_uchar", metadata !"to_uchar", metadata !"_ZNK11ap_int_baseILi7ELb1ELb1EE8to_ucharEv", metadata !66, i32 1660, metadata !1173, i1 false, i1 false, i32 0, i32 0, null, i32 256, i1 false, null, null, i32 0, metadata !78, i32 1660} ; [ DW_TAG_subprogram ]
!1173 = metadata !{i32 786453, i32 0, metadata !"", i32 0, i32 0, i64 0, i64 0, i64 0, i32 0, null, metadata !1174, i32 0, i32 0} ; [ DW_TAG_subroutine_type ]
!1174 = metadata !{metadata !99, metadata !1168}
!1175 = metadata !{i32 786478, i32 0, metadata !1036, metadata !"to_char", metadata !"to_char", metadata !"_ZNK11ap_int_baseILi7ELb1ELb1EE7to_charEv", metadata !66, i32 1661, metadata !1176, i1 false, i1 false, i32 0, i32 0, null, i32 256, i1 false, null, null, i32 0, metadata !78, i32 1661} ; [ DW_TAG_subprogram ]
!1176 = metadata !{i32 786453, i32 0, metadata !"", i32 0, i32 0, i64 0, i64 0, i64 0, i32 0, null, metadata !1177, i32 0, i32 0} ; [ DW_TAG_subroutine_type ]
!1177 = metadata !{metadata !95, metadata !1168}
!1178 = metadata !{i32 786478, i32 0, metadata !1036, metadata !"to_ushort", metadata !"to_ushort", metadata !"_ZNK11ap_int_baseILi7ELb1ELb1EE9to_ushortEv", metadata !66, i32 1662, metadata !1179, i1 false, i1 false, i32 0, i32 0, null, i32 256, i1 false, null, null, i32 0, metadata !78, i32 1662} ; [ DW_TAG_subprogram ]
!1179 = metadata !{i32 786453, i32 0, metadata !"", i32 0, i32 0, i64 0, i64 0, i64 0, i32 0, null, metadata !1180, i32 0, i32 0} ; [ DW_TAG_subroutine_type ]
!1180 = metadata !{metadata !107, metadata !1168}
!1181 = metadata !{i32 786478, i32 0, metadata !1036, metadata !"to_short", metadata !"to_short", metadata !"_ZNK11ap_int_baseILi7ELb1ELb1EE8to_shortEv", metadata !66, i32 1663, metadata !1182, i1 false, i1 false, i32 0, i32 0, null, i32 256, i1 false, null, null, i32 0, metadata !78, i32 1663} ; [ DW_TAG_subprogram ]
!1182 = metadata !{i32 786453, i32 0, metadata !"", i32 0, i32 0, i64 0, i64 0, i64 0, i32 0, null, metadata !1183, i32 0, i32 0} ; [ DW_TAG_subroutine_type ]
!1183 = metadata !{metadata !103, metadata !1168}
!1184 = metadata !{i32 786478, i32 0, metadata !1036, metadata !"to_int", metadata !"to_int", metadata !"_ZNK11ap_int_baseILi7ELb1ELb1EE6to_intEv", metadata !66, i32 1664, metadata !1185, i1 false, i1 false, i32 0, i32 0, null, i32 256, i1 false, null, null, i32 0, metadata !78, i32 1664} ; [ DW_TAG_subprogram ]
!1185 = metadata !{i32 786453, i32 0, metadata !"", i32 0, i32 0, i64 0, i64 0, i64 0, i32 0, null, metadata !1186, i32 0, i32 0} ; [ DW_TAG_subroutine_type ]
!1186 = metadata !{metadata !82, metadata !1168}
!1187 = metadata !{i32 786478, i32 0, metadata !1036, metadata !"to_uint", metadata !"to_uint", metadata !"_ZNK11ap_int_baseILi7ELb1ELb1EE7to_uintEv", metadata !66, i32 1665, metadata !1188, i1 false, i1 false, i32 0, i32 0, null, i32 256, i1 false, null, null, i32 0, metadata !78, i32 1665} ; [ DW_TAG_subprogram ]
!1188 = metadata !{i32 786453, i32 0, metadata !"", i32 0, i32 0, i64 0, i64 0, i64 0, i32 0, null, metadata !1189, i32 0, i32 0} ; [ DW_TAG_subroutine_type ]
!1189 = metadata !{metadata !114, metadata !1168}
!1190 = metadata !{i32 786478, i32 0, metadata !1036, metadata !"to_long", metadata !"to_long", metadata !"_ZNK11ap_int_baseILi7ELb1ELb1EE7to_longEv", metadata !66, i32 1666, metadata !1191, i1 false, i1 false, i32 0, i32 0, null, i32 256, i1 false, null, null, i32 0, metadata !78, i32 1666} ; [ DW_TAG_subprogram ]
!1191 = metadata !{i32 786453, i32 0, metadata !"", i32 0, i32 0, i64 0, i64 0, i64 0, i32 0, null, metadata !1192, i32 0, i32 0} ; [ DW_TAG_subroutine_type ]
!1192 = metadata !{metadata !118, metadata !1168}
!1193 = metadata !{i32 786478, i32 0, metadata !1036, metadata !"to_ulong", metadata !"to_ulong", metadata !"_ZNK11ap_int_baseILi7ELb1ELb1EE8to_ulongEv", metadata !66, i32 1667, metadata !1194, i1 false, i1 false, i32 0, i32 0, null, i32 256, i1 false, null, null, i32 0, metadata !78, i32 1667} ; [ DW_TAG_subprogram ]
!1194 = metadata !{i32 786453, i32 0, metadata !"", i32 0, i32 0, i64 0, i64 0, i64 0, i32 0, null, metadata !1195, i32 0, i32 0} ; [ DW_TAG_subroutine_type ]
!1195 = metadata !{metadata !122, metadata !1168}
!1196 = metadata !{i32 786478, i32 0, metadata !1036, metadata !"to_int64", metadata !"to_int64", metadata !"_ZNK11ap_int_baseILi7ELb1ELb1EE8to_int64Ev", metadata !66, i32 1668, metadata !1197, i1 false, i1 false, i32 0, i32 0, null, i32 256, i1 false, null, null, i32 0, metadata !78, i32 1668} ; [ DW_TAG_subprogram ]
!1197 = metadata !{i32 786453, i32 0, metadata !"", i32 0, i32 0, i64 0, i64 0, i64 0, i32 0, null, metadata !1198, i32 0, i32 0} ; [ DW_TAG_subroutine_type ]
!1198 = metadata !{metadata !126, metadata !1168}
!1199 = metadata !{i32 786478, i32 0, metadata !1036, metadata !"to_uint64", metadata !"to_uint64", metadata !"_ZNK11ap_int_baseILi7ELb1ELb1EE9to_uint64Ev", metadata !66, i32 1669, metadata !1200, i1 false, i1 false, i32 0, i32 0, null, i32 256, i1 false, null, null, i32 0, metadata !78, i32 1669} ; [ DW_TAG_subprogram ]
!1200 = metadata !{i32 786453, i32 0, metadata !"", i32 0, i32 0, i64 0, i64 0, i64 0, i32 0, null, metadata !1201, i32 0, i32 0} ; [ DW_TAG_subroutine_type ]
!1201 = metadata !{metadata !131, metadata !1168}
!1202 = metadata !{i32 786478, i32 0, metadata !1036, metadata !"to_double", metadata !"to_double", metadata !"_ZNK11ap_int_baseILi7ELb1ELb1EE9to_doubleEv", metadata !66, i32 1670, metadata !1203, i1 false, i1 false, i32 0, i32 0, null, i32 256, i1 false, null, null, i32 0, metadata !78, i32 1670} ; [ DW_TAG_subprogram ]
!1203 = metadata !{i32 786453, i32 0, metadata !"", i32 0, i32 0, i64 0, i64 0, i64 0, i32 0, null, metadata !1204, i32 0, i32 0} ; [ DW_TAG_subroutine_type ]
!1204 = metadata !{metadata !140, metadata !1168}
!1205 = metadata !{i32 786478, i32 0, metadata !1036, metadata !"length", metadata !"length", metadata !"_ZNK11ap_int_baseILi7ELb1ELb1EE6lengthEv", metadata !66, i32 1684, metadata !1185, i1 false, i1 false, i32 0, i32 0, null, i32 256, i1 false, null, null, i32 0, metadata !78, i32 1684} ; [ DW_TAG_subprogram ]
!1206 = metadata !{i32 786478, i32 0, metadata !1036, metadata !"length", metadata !"length", metadata !"_ZNVK11ap_int_baseILi7ELb1ELb1EE6lengthEv", metadata !66, i32 1685, metadata !1207, i1 false, i1 false, i32 0, i32 0, null, i32 256, i1 false, null, null, i32 0, metadata !78, i32 1685} ; [ DW_TAG_subprogram ]
!1207 = metadata !{i32 786453, i32 0, metadata !"", i32 0, i32 0, i64 0, i64 0, i64 0, i32 0, null, metadata !1208, i32 0, i32 0} ; [ DW_TAG_subroutine_type ]
!1208 = metadata !{metadata !82, metadata !1209}
!1209 = metadata !{i32 786447, i32 0, metadata !"", i32 0, i32 0, i64 64, i64 64, i64 0, i32 64, metadata !1065} ; [ DW_TAG_pointer_type ]
!1210 = metadata !{i32 786478, i32 0, metadata !1036, metadata !"reverse", metadata !"reverse", metadata !"_ZN11ap_int_baseILi7ELb1ELb1EE7reverseEv", metadata !66, i32 1690, metadata !1211, i1 false, i1 false, i32 0, i32 0, null, i32 256, i1 false, null, null, i32 0, metadata !78, i32 1690} ; [ DW_TAG_subprogram ]
!1211 = metadata !{i32 786453, i32 0, metadata !"", i32 0, i32 0, i64 0, i64 0, i64 0, i32 0, null, metadata !1212, i32 0, i32 0} ; [ DW_TAG_subroutine_type ]
!1212 = metadata !{metadata !1126, metadata !1057}
!1213 = metadata !{i32 786478, i32 0, metadata !1036, metadata !"iszero", metadata !"iszero", metadata !"_ZNK11ap_int_baseILi7ELb1ELb1EE6iszeroEv", metadata !66, i32 1696, metadata !1170, i1 false, i1 false, i32 0, i32 0, null, i32 256, i1 false, null, null, i32 0, metadata !78, i32 1696} ; [ DW_TAG_subprogram ]
!1214 = metadata !{i32 786478, i32 0, metadata !1036, metadata !"is_zero", metadata !"is_zero", metadata !"_ZNK11ap_int_baseILi7ELb1ELb1EE7is_zeroEv", metadata !66, i32 1701, metadata !1170, i1 false, i1 false, i32 0, i32 0, null, i32 256, i1 false, null, null, i32 0, metadata !78, i32 1701} ; [ DW_TAG_subprogram ]
!1215 = metadata !{i32 786478, i32 0, metadata !1036, metadata !"sign", metadata !"sign", metadata !"_ZNK11ap_int_baseILi7ELb1ELb1EE4signEv", metadata !66, i32 1706, metadata !1170, i1 false, i1 false, i32 0, i32 0, null, i32 256, i1 false, null, null, i32 0, metadata !78, i32 1706} ; [ DW_TAG_subprogram ]
!1216 = metadata !{i32 786478, i32 0, metadata !1036, metadata !"clear", metadata !"clear", metadata !"_ZN11ap_int_baseILi7ELb1ELb1EE5clearEi", metadata !66, i32 1714, metadata !1083, i1 false, i1 false, i32 0, i32 0, null, i32 256, i1 false, null, null, i32 0, metadata !78, i32 1714} ; [ DW_TAG_subprogram ]
!1217 = metadata !{i32 786478, i32 0, metadata !1036, metadata !"invert", metadata !"invert", metadata !"_ZN11ap_int_baseILi7ELb1ELb1EE6invertEi", metadata !66, i32 1720, metadata !1083, i1 false, i1 false, i32 0, i32 0, null, i32 256, i1 false, null, null, i32 0, metadata !78, i32 1720} ; [ DW_TAG_subprogram ]
!1218 = metadata !{i32 786478, i32 0, metadata !1036, metadata !"test", metadata !"test", metadata !"_ZNK11ap_int_baseILi7ELb1ELb1EE4testEi", metadata !66, i32 1728, metadata !1219, i1 false, i1 false, i32 0, i32 0, null, i32 256, i1 false, null, null, i32 0, metadata !78, i32 1728} ; [ DW_TAG_subprogram ]
!1219 = metadata !{i32 786453, i32 0, metadata !"", i32 0, i32 0, i64 0, i64 0, i64 0, i32 0, null, metadata !1220, i32 0, i32 0} ; [ DW_TAG_subroutine_type ]
!1220 = metadata !{metadata !84, metadata !1168, metadata !82}
!1221 = metadata !{i32 786478, i32 0, metadata !1036, metadata !"set", metadata !"set", metadata !"_ZN11ap_int_baseILi7ELb1ELb1EE3setEi", metadata !66, i32 1734, metadata !1083, i1 false, i1 false, i32 0, i32 0, null, i32 256, i1 false, null, null, i32 0, metadata !78, i32 1734} ; [ DW_TAG_subprogram ]
!1222 = metadata !{i32 786478, i32 0, metadata !1036, metadata !"set", metadata !"set", metadata !"_ZN11ap_int_baseILi7ELb1ELb1EE3setEib", metadata !66, i32 1740, metadata !1223, i1 false, i1 false, i32 0, i32 0, null, i32 256, i1 false, null, null, i32 0, metadata !78, i32 1740} ; [ DW_TAG_subprogram ]
!1223 = metadata !{i32 786453, i32 0, metadata !"", i32 0, i32 0, i64 0, i64 0, i64 0, i32 0, null, metadata !1224, i32 0, i32 0} ; [ DW_TAG_subroutine_type ]
!1224 = metadata !{null, metadata !1057, metadata !82, metadata !84}
!1225 = metadata !{i32 786478, i32 0, metadata !1036, metadata !"lrotate", metadata !"lrotate", metadata !"_ZN11ap_int_baseILi7ELb1ELb1EE7lrotateEi", metadata !66, i32 1747, metadata !1083, i1 false, i1 false, i32 0, i32 0, null, i32 256, i1 false, null, null, i32 0, metadata !78, i32 1747} ; [ DW_TAG_subprogram ]
!1226 = metadata !{i32 786478, i32 0, metadata !1036, metadata !"rrotate", metadata !"rrotate", metadata !"_ZN11ap_int_baseILi7ELb1ELb1EE7rrotateEi", metadata !66, i32 1756, metadata !1083, i1 false, i1 false, i32 0, i32 0, null, i32 256, i1 false, null, null, i32 0, metadata !78, i32 1756} ; [ DW_TAG_subprogram ]
!1227 = metadata !{i32 786478, i32 0, metadata !1036, metadata !"set_bit", metadata !"set_bit", metadata !"_ZN11ap_int_baseILi7ELb1ELb1EE7set_bitEib", metadata !66, i32 1764, metadata !1223, i1 false, i1 false, i32 0, i32 0, null, i32 256, i1 false, null, null, i32 0, metadata !78, i32 1764} ; [ DW_TAG_subprogram ]
!1228 = metadata !{i32 786478, i32 0, metadata !1036, metadata !"get_bit", metadata !"get_bit", metadata !"_ZNK11ap_int_baseILi7ELb1ELb1EE7get_bitEi", metadata !66, i32 1769, metadata !1219, i1 false, i1 false, i32 0, i32 0, null, i32 256, i1 false, null, null, i32 0, metadata !78, i32 1769} ; [ DW_TAG_subprogram ]
!1229 = metadata !{i32 786478, i32 0, metadata !1036, metadata !"b_not", metadata !"b_not", metadata !"_ZN11ap_int_baseILi7ELb1ELb1EE5b_notEv", metadata !66, i32 1774, metadata !1055, i1 false, i1 false, i32 0, i32 0, null, i32 256, i1 false, null, null, i32 0, metadata !78, i32 1774} ; [ DW_TAG_subprogram ]
!1230 = metadata !{i32 786478, i32 0, metadata !1036, metadata !"countLeadingZeros", metadata !"countLeadingZeros", metadata !"_ZN11ap_int_baseILi7ELb1ELb1EE17countLeadingZerosEv", metadata !66, i32 1781, metadata !1231, i1 false, i1 false, i32 0, i32 0, null, i32 256, i1 false, null, null, i32 0, metadata !78, i32 1781} ; [ DW_TAG_subprogram ]
!1231 = metadata !{i32 786453, i32 0, metadata !"", i32 0, i32 0, i64 0, i64 0, i64 0, i32 0, null, metadata !1232, i32 0, i32 0} ; [ DW_TAG_subroutine_type ]
!1232 = metadata !{metadata !82, metadata !1057}
!1233 = metadata !{i32 786478, i32 0, metadata !1036, metadata !"operator++", metadata !"operator++", metadata !"_ZN11ap_int_baseILi7ELb1ELb1EEppEv", metadata !66, i32 1838, metadata !1211, i1 false, i1 false, i32 0, i32 0, null, i32 256, i1 false, null, null, i32 0, metadata !78, i32 1838} ; [ DW_TAG_subprogram ]
!1234 = metadata !{i32 786478, i32 0, metadata !1036, metadata !"operator--", metadata !"operator--", metadata !"_ZN11ap_int_baseILi7ELb1ELb1EEmmEv", metadata !66, i32 1842, metadata !1211, i1 false, i1 false, i32 0, i32 0, null, i32 256, i1 false, null, null, i32 0, metadata !78, i32 1842} ; [ DW_TAG_subprogram ]
!1235 = metadata !{i32 786478, i32 0, metadata !1036, metadata !"operator++", metadata !"operator++", metadata !"_ZN11ap_int_baseILi7ELb1ELb1EEppEi", metadata !66, i32 1850, metadata !1236, i1 false, i1 false, i32 0, i32 0, null, i32 256, i1 false, null, null, i32 0, metadata !78, i32 1850} ; [ DW_TAG_subprogram ]
!1236 = metadata !{i32 786453, i32 0, metadata !"", i32 0, i32 0, i64 0, i64 0, i64 0, i32 0, null, metadata !1237, i32 0, i32 0} ; [ DW_TAG_subroutine_type ]
!1237 = metadata !{metadata !1035, metadata !1057, metadata !82}
!1238 = metadata !{i32 786478, i32 0, metadata !1036, metadata !"operator--", metadata !"operator--", metadata !"_ZN11ap_int_baseILi7ELb1ELb1EEmmEi", metadata !66, i32 1855, metadata !1236, i1 false, i1 false, i32 0, i32 0, null, i32 256, i1 false, null, null, i32 0, metadata !78, i32 1855} ; [ DW_TAG_subprogram ]
!1239 = metadata !{i32 786478, i32 0, metadata !1036, metadata !"operator+", metadata !"operator+", metadata !"_ZNK11ap_int_baseILi7ELb1ELb1EEpsEv", metadata !66, i32 1864, metadata !1240, i1 false, i1 false, i32 0, i32 0, null, i32 256, i1 false, null, null, i32 0, metadata !78, i32 1864} ; [ DW_TAG_subprogram ]
!1240 = metadata !{i32 786453, i32 0, metadata !"", i32 0, i32 0, i64 0, i64 0, i64 0, i32 0, null, metadata !1241, i32 0, i32 0} ; [ DW_TAG_subroutine_type ]
!1241 = metadata !{metadata !1036, metadata !1168}
!1242 = metadata !{i32 786478, i32 0, metadata !1036, metadata !"operator!", metadata !"operator!", metadata !"_ZNK11ap_int_baseILi7ELb1ELb1EEntEv", metadata !66, i32 1870, metadata !1170, i1 false, i1 false, i32 0, i32 0, null, i32 256, i1 false, null, null, i32 0, metadata !78, i32 1870} ; [ DW_TAG_subprogram ]
!1243 = metadata !{i32 786478, i32 0, metadata !1036, metadata !"operator-", metadata !"operator-", metadata !"_ZNK11ap_int_baseILi7ELb1ELb1EEngEv", metadata !66, i32 1875, metadata !1244, i1 false, i1 false, i32 0, i32 0, null, i32 256, i1 false, null, null, i32 0, metadata !78, i32 1875} ; [ DW_TAG_subprogram ]
!1244 = metadata !{i32 786453, i32 0, metadata !"", i32 0, i32 0, i64 0, i64 0, i64 0, i32 0, null, metadata !1245, i32 0, i32 0} ; [ DW_TAG_subroutine_type ]
!1245 = metadata !{metadata !1246, metadata !1168}
!1246 = metadata !{i32 786434, null, metadata !"ap_int_base<8, true, true>", metadata !66, i32 1397, i64 8, i64 8, i32 0, i32 0, null, metadata !1247, i32 0, null, metadata !1759} ; [ DW_TAG_class_type ]
!1247 = metadata !{metadata !1248, metadata !1259, metadata !1263, metadata !1266, metadata !1269, metadata !1272, metadata !1275, metadata !1278, metadata !1281, metadata !1284, metadata !1287, metadata !1290, metadata !1293, metadata !1296, metadata !1299, metadata !1302, metadata !1305, metadata !1308, metadata !1313, metadata !1318, metadata !1323, metadata !1324, metadata !1328, metadata !1331, metadata !1334, metadata !1337, metadata !1340, metadata !1343, metadata !1346, metadata !1349, metadata !1352, metadata !1355, metadata !1358, metadata !1361, metadata !1366, metadata !1369, metadata !1372, metadata !1375, metadata !1378, metadata !1381, metadata !1384, metadata !1387, metadata !1390, metadata !1393, metadata !1396, metadata !1399, metadata !1402, metadata !1403, metadata !1407, metadata !1410, metadata !1411, metadata !1412, metadata !1413, metadata !1414, metadata !1415, metadata !1418, metadata !1419, metadata !1422, metadata !1423, metadata !1424, metadata !1425, metadata !1426, metadata !1427, metadata !1430, metadata !1431, metadata !1432, metadata !1435, metadata !1436, metadata !1439, metadata !1440, metadata !1720, metadata !1724, metadata !1725, metadata !1728, metadata !1729, metadata !1733, metadata !1734, metadata !1735, metadata !1736, metadata !1739, metadata !1740, metadata !1741, metadata !1742, metadata !1743, metadata !1744, metadata !1745, metadata !1746, metadata !1747, metadata !1748, metadata !1749, metadata !1750, metadata !1753, metadata !1756}
!1248 = metadata !{i32 786460, metadata !1246, null, metadata !66, i32 0, i64 0, i64 0, i64 0, i32 0, metadata !1249} ; [ DW_TAG_inheritance ]
!1249 = metadata !{i32 786434, null, metadata !"ssdm_int<8 + 1024 * 0, true>", metadata !70, i32 10, i64 8, i64 8, i32 0, i32 0, null, metadata !1250, i32 0, null, metadata !1257} ; [ DW_TAG_class_type ]
!1250 = metadata !{metadata !1251, metadata !1253}
!1251 = metadata !{i32 786445, metadata !1249, metadata !"V", metadata !70, i32 10, i64 8, i64 8, i64 0, i32 0, metadata !1252} ; [ DW_TAG_member ]
!1252 = metadata !{i32 786468, null, metadata !"int8", null, i32 0, i64 8, i64 8, i64 0, i32 0, i32 5} ; [ DW_TAG_base_type ]
!1253 = metadata !{i32 786478, i32 0, metadata !1249, metadata !"ssdm_int", metadata !"ssdm_int", metadata !"", metadata !70, i32 10, metadata !1254, i1 false, i1 false, i32 0, i32 0, null, i32 256, i1 false, null, null, i32 0, metadata !78, i32 10} ; [ DW_TAG_subprogram ]
!1254 = metadata !{i32 786453, i32 0, metadata !"", i32 0, i32 0, i64 0, i64 0, i64 0, i32 0, null, metadata !1255, i32 0, i32 0} ; [ DW_TAG_subroutine_type ]
!1255 = metadata !{null, metadata !1256}
!1256 = metadata !{i32 786447, i32 0, metadata !"", i32 0, i32 0, i64 64, i64 64, i64 0, i32 64, metadata !1249} ; [ DW_TAG_pointer_type ]
!1257 = metadata !{metadata !1258, metadata !303}
!1258 = metadata !{i32 786480, null, metadata !"_AP_N", metadata !82, i64 8, null, i32 0, i32 0} ; [ DW_TAG_template_value_parameter ]
!1259 = metadata !{i32 786478, i32 0, metadata !1246, metadata !"ap_int_base", metadata !"ap_int_base", metadata !"", metadata !66, i32 1438, metadata !1260, i1 false, i1 false, i32 0, i32 0, null, i32 256, i1 false, null, null, i32 0, metadata !78, i32 1438} ; [ DW_TAG_subprogram ]
!1260 = metadata !{i32 786453, i32 0, metadata !"", i32 0, i32 0, i64 0, i64 0, i64 0, i32 0, null, metadata !1261, i32 0, i32 0} ; [ DW_TAG_subroutine_type ]
!1261 = metadata !{null, metadata !1262}
!1262 = metadata !{i32 786447, i32 0, metadata !"", i32 0, i32 0, i64 64, i64 64, i64 0, i32 64, metadata !1246} ; [ DW_TAG_pointer_type ]
!1263 = metadata !{i32 786478, i32 0, metadata !1246, metadata !"ap_int_base", metadata !"ap_int_base", metadata !"", metadata !66, i32 1460, metadata !1264, i1 false, i1 false, i32 0, i32 0, null, i32 384, i1 false, null, null, i32 0, metadata !78, i32 1460} ; [ DW_TAG_subprogram ]
!1264 = metadata !{i32 786453, i32 0, metadata !"", i32 0, i32 0, i64 0, i64 0, i64 0, i32 0, null, metadata !1265, i32 0, i32 0} ; [ DW_TAG_subroutine_type ]
!1265 = metadata !{null, metadata !1262, metadata !84}
!1266 = metadata !{i32 786478, i32 0, metadata !1246, metadata !"ap_int_base", metadata !"ap_int_base", metadata !"", metadata !66, i32 1461, metadata !1267, i1 false, i1 false, i32 0, i32 0, null, i32 384, i1 false, null, null, i32 0, metadata !78, i32 1461} ; [ DW_TAG_subprogram ]
!1267 = metadata !{i32 786453, i32 0, metadata !"", i32 0, i32 0, i64 0, i64 0, i64 0, i32 0, null, metadata !1268, i32 0, i32 0} ; [ DW_TAG_subroutine_type ]
!1268 = metadata !{null, metadata !1262, metadata !95}
!1269 = metadata !{i32 786478, i32 0, metadata !1246, metadata !"ap_int_base", metadata !"ap_int_base", metadata !"", metadata !66, i32 1462, metadata !1270, i1 false, i1 false, i32 0, i32 0, null, i32 384, i1 false, null, null, i32 0, metadata !78, i32 1462} ; [ DW_TAG_subprogram ]
!1270 = metadata !{i32 786453, i32 0, metadata !"", i32 0, i32 0, i64 0, i64 0, i64 0, i32 0, null, metadata !1271, i32 0, i32 0} ; [ DW_TAG_subroutine_type ]
!1271 = metadata !{null, metadata !1262, metadata !99}
!1272 = metadata !{i32 786478, i32 0, metadata !1246, metadata !"ap_int_base", metadata !"ap_int_base", metadata !"", metadata !66, i32 1463, metadata !1273, i1 false, i1 false, i32 0, i32 0, null, i32 384, i1 false, null, null, i32 0, metadata !78, i32 1463} ; [ DW_TAG_subprogram ]
!1273 = metadata !{i32 786453, i32 0, metadata !"", i32 0, i32 0, i64 0, i64 0, i64 0, i32 0, null, metadata !1274, i32 0, i32 0} ; [ DW_TAG_subroutine_type ]
!1274 = metadata !{null, metadata !1262, metadata !103}
!1275 = metadata !{i32 786478, i32 0, metadata !1246, metadata !"ap_int_base", metadata !"ap_int_base", metadata !"", metadata !66, i32 1464, metadata !1276, i1 false, i1 false, i32 0, i32 0, null, i32 384, i1 false, null, null, i32 0, metadata !78, i32 1464} ; [ DW_TAG_subprogram ]
!1276 = metadata !{i32 786453, i32 0, metadata !"", i32 0, i32 0, i64 0, i64 0, i64 0, i32 0, null, metadata !1277, i32 0, i32 0} ; [ DW_TAG_subroutine_type ]
!1277 = metadata !{null, metadata !1262, metadata !107}
!1278 = metadata !{i32 786478, i32 0, metadata !1246, metadata !"ap_int_base", metadata !"ap_int_base", metadata !"", metadata !66, i32 1465, metadata !1279, i1 false, i1 false, i32 0, i32 0, null, i32 384, i1 false, null, null, i32 0, metadata !78, i32 1465} ; [ DW_TAG_subprogram ]
!1279 = metadata !{i32 786453, i32 0, metadata !"", i32 0, i32 0, i64 0, i64 0, i64 0, i32 0, null, metadata !1280, i32 0, i32 0} ; [ DW_TAG_subroutine_type ]
!1280 = metadata !{null, metadata !1262, metadata !82}
!1281 = metadata !{i32 786478, i32 0, metadata !1246, metadata !"ap_int_base", metadata !"ap_int_base", metadata !"", metadata !66, i32 1466, metadata !1282, i1 false, i1 false, i32 0, i32 0, null, i32 384, i1 false, null, null, i32 0, metadata !78, i32 1466} ; [ DW_TAG_subprogram ]
!1282 = metadata !{i32 786453, i32 0, metadata !"", i32 0, i32 0, i64 0, i64 0, i64 0, i32 0, null, metadata !1283, i32 0, i32 0} ; [ DW_TAG_subroutine_type ]
!1283 = metadata !{null, metadata !1262, metadata !114}
!1284 = metadata !{i32 786478, i32 0, metadata !1246, metadata !"ap_int_base", metadata !"ap_int_base", metadata !"", metadata !66, i32 1467, metadata !1285, i1 false, i1 false, i32 0, i32 0, null, i32 384, i1 false, null, null, i32 0, metadata !78, i32 1467} ; [ DW_TAG_subprogram ]
!1285 = metadata !{i32 786453, i32 0, metadata !"", i32 0, i32 0, i64 0, i64 0, i64 0, i32 0, null, metadata !1286, i32 0, i32 0} ; [ DW_TAG_subroutine_type ]
!1286 = metadata !{null, metadata !1262, metadata !118}
!1287 = metadata !{i32 786478, i32 0, metadata !1246, metadata !"ap_int_base", metadata !"ap_int_base", metadata !"", metadata !66, i32 1468, metadata !1288, i1 false, i1 false, i32 0, i32 0, null, i32 384, i1 false, null, null, i32 0, metadata !78, i32 1468} ; [ DW_TAG_subprogram ]
!1288 = metadata !{i32 786453, i32 0, metadata !"", i32 0, i32 0, i64 0, i64 0, i64 0, i32 0, null, metadata !1289, i32 0, i32 0} ; [ DW_TAG_subroutine_type ]
!1289 = metadata !{null, metadata !1262, metadata !122}
!1290 = metadata !{i32 786478, i32 0, metadata !1246, metadata !"ap_int_base", metadata !"ap_int_base", metadata !"", metadata !66, i32 1469, metadata !1291, i1 false, i1 false, i32 0, i32 0, null, i32 384, i1 false, null, null, i32 0, metadata !78, i32 1469} ; [ DW_TAG_subprogram ]
!1291 = metadata !{i32 786453, i32 0, metadata !"", i32 0, i32 0, i64 0, i64 0, i64 0, i32 0, null, metadata !1292, i32 0, i32 0} ; [ DW_TAG_subroutine_type ]
!1292 = metadata !{null, metadata !1262, metadata !126}
!1293 = metadata !{i32 786478, i32 0, metadata !1246, metadata !"ap_int_base", metadata !"ap_int_base", metadata !"", metadata !66, i32 1470, metadata !1294, i1 false, i1 false, i32 0, i32 0, null, i32 384, i1 false, null, null, i32 0, metadata !78, i32 1470} ; [ DW_TAG_subprogram ]
!1294 = metadata !{i32 786453, i32 0, metadata !"", i32 0, i32 0, i64 0, i64 0, i64 0, i32 0, null, metadata !1295, i32 0, i32 0} ; [ DW_TAG_subroutine_type ]
!1295 = metadata !{null, metadata !1262, metadata !131}
!1296 = metadata !{i32 786478, i32 0, metadata !1246, metadata !"ap_int_base", metadata !"ap_int_base", metadata !"", metadata !66, i32 1471, metadata !1297, i1 false, i1 false, i32 0, i32 0, null, i32 384, i1 false, null, null, i32 0, metadata !78, i32 1471} ; [ DW_TAG_subprogram ]
!1297 = metadata !{i32 786453, i32 0, metadata !"", i32 0, i32 0, i64 0, i64 0, i64 0, i32 0, null, metadata !1298, i32 0, i32 0} ; [ DW_TAG_subroutine_type ]
!1298 = metadata !{null, metadata !1262, metadata !136}
!1299 = metadata !{i32 786478, i32 0, metadata !1246, metadata !"ap_int_base", metadata !"ap_int_base", metadata !"", metadata !66, i32 1472, metadata !1300, i1 false, i1 false, i32 0, i32 0, null, i32 384, i1 false, null, null, i32 0, metadata !78, i32 1472} ; [ DW_TAG_subprogram ]
!1300 = metadata !{i32 786453, i32 0, metadata !"", i32 0, i32 0, i64 0, i64 0, i64 0, i32 0, null, metadata !1301, i32 0, i32 0} ; [ DW_TAG_subroutine_type ]
!1301 = metadata !{null, metadata !1262, metadata !140}
!1302 = metadata !{i32 786478, i32 0, metadata !1246, metadata !"ap_int_base", metadata !"ap_int_base", metadata !"", metadata !66, i32 1499, metadata !1303, i1 false, i1 false, i32 0, i32 0, null, i32 256, i1 false, null, null, i32 0, metadata !78, i32 1499} ; [ DW_TAG_subprogram ]
!1303 = metadata !{i32 786453, i32 0, metadata !"", i32 0, i32 0, i64 0, i64 0, i64 0, i32 0, null, metadata !1304, i32 0, i32 0} ; [ DW_TAG_subroutine_type ]
!1304 = metadata !{null, metadata !1262, metadata !144}
!1305 = metadata !{i32 786478, i32 0, metadata !1246, metadata !"ap_int_base", metadata !"ap_int_base", metadata !"", metadata !66, i32 1506, metadata !1306, i1 false, i1 false, i32 0, i32 0, null, i32 256, i1 false, null, null, i32 0, metadata !78, i32 1506} ; [ DW_TAG_subprogram ]
!1306 = metadata !{i32 786453, i32 0, metadata !"", i32 0, i32 0, i64 0, i64 0, i64 0, i32 0, null, metadata !1307, i32 0, i32 0} ; [ DW_TAG_subroutine_type ]
!1307 = metadata !{null, metadata !1262, metadata !144, metadata !95}
!1308 = metadata !{i32 786478, i32 0, metadata !1246, metadata !"read", metadata !"read", metadata !"_ZNV11ap_int_baseILi8ELb1ELb1EE4readEv", metadata !66, i32 1527, metadata !1309, i1 false, i1 false, i32 0, i32 0, null, i32 256, i1 false, null, null, i32 0, metadata !78, i32 1527} ; [ DW_TAG_subprogram ]
!1309 = metadata !{i32 786453, i32 0, metadata !"", i32 0, i32 0, i64 0, i64 0, i64 0, i32 0, null, metadata !1310, i32 0, i32 0} ; [ DW_TAG_subroutine_type ]
!1310 = metadata !{metadata !1246, metadata !1311}
!1311 = metadata !{i32 786447, i32 0, metadata !"", i32 0, i32 0, i64 64, i64 64, i64 0, i32 64, metadata !1312} ; [ DW_TAG_pointer_type ]
!1312 = metadata !{i32 786485, null, metadata !"", null, i32 0, i64 0, i64 0, i64 0, i32 0, metadata !1246} ; [ DW_TAG_volatile_type ]
!1313 = metadata !{i32 786478, i32 0, metadata !1246, metadata !"write", metadata !"write", metadata !"_ZNV11ap_int_baseILi8ELb1ELb1EE5writeERKS0_", metadata !66, i32 1533, metadata !1314, i1 false, i1 false, i32 0, i32 0, null, i32 256, i1 false, null, null, i32 0, metadata !78, i32 1533} ; [ DW_TAG_subprogram ]
!1314 = metadata !{i32 786453, i32 0, metadata !"", i32 0, i32 0, i64 0, i64 0, i64 0, i32 0, null, metadata !1315, i32 0, i32 0} ; [ DW_TAG_subroutine_type ]
!1315 = metadata !{null, metadata !1311, metadata !1316}
!1316 = metadata !{i32 786448, null, null, null, i32 0, i64 0, i64 0, i64 0, i32 0, metadata !1317} ; [ DW_TAG_reference_type ]
!1317 = metadata !{i32 786470, null, metadata !"", null, i32 0, i64 0, i64 0, i64 0, i32 0, metadata !1246} ; [ DW_TAG_const_type ]
!1318 = metadata !{i32 786478, i32 0, metadata !1246, metadata !"operator=", metadata !"operator=", metadata !"_ZNV11ap_int_baseILi8ELb1ELb1EEaSERVKS0_", metadata !66, i32 1545, metadata !1319, i1 false, i1 false, i32 0, i32 0, null, i32 256, i1 false, null, null, i32 0, metadata !78, i32 1545} ; [ DW_TAG_subprogram ]
!1319 = metadata !{i32 786453, i32 0, metadata !"", i32 0, i32 0, i64 0, i64 0, i64 0, i32 0, null, metadata !1320, i32 0, i32 0} ; [ DW_TAG_subroutine_type ]
!1320 = metadata !{null, metadata !1311, metadata !1321}
!1321 = metadata !{i32 786448, null, null, null, i32 0, i64 0, i64 0, i64 0, i32 0, metadata !1322} ; [ DW_TAG_reference_type ]
!1322 = metadata !{i32 786470, null, metadata !"", null, i32 0, i64 0, i64 0, i64 0, i32 0, metadata !1312} ; [ DW_TAG_const_type ]
!1323 = metadata !{i32 786478, i32 0, metadata !1246, metadata !"operator=", metadata !"operator=", metadata !"_ZNV11ap_int_baseILi8ELb1ELb1EEaSERKS0_", metadata !66, i32 1554, metadata !1314, i1 false, i1 false, i32 0, i32 0, null, i32 256, i1 false, null, null, i32 0, metadata !78, i32 1554} ; [ DW_TAG_subprogram ]
!1324 = metadata !{i32 786478, i32 0, metadata !1246, metadata !"operator=", metadata !"operator=", metadata !"_ZN11ap_int_baseILi8ELb1ELb1EEaSERVKS0_", metadata !66, i32 1577, metadata !1325, i1 false, i1 false, i32 0, i32 0, null, i32 256, i1 false, null, null, i32 0, metadata !78, i32 1577} ; [ DW_TAG_subprogram ]
!1325 = metadata !{i32 786453, i32 0, metadata !"", i32 0, i32 0, i64 0, i64 0, i64 0, i32 0, null, metadata !1326, i32 0, i32 0} ; [ DW_TAG_subroutine_type ]
!1326 = metadata !{metadata !1327, metadata !1262, metadata !1321}
!1327 = metadata !{i32 786448, null, null, null, i32 0, i64 0, i64 0, i64 0, i32 0, metadata !1246} ; [ DW_TAG_reference_type ]
!1328 = metadata !{i32 786478, i32 0, metadata !1246, metadata !"operator=", metadata !"operator=", metadata !"_ZN11ap_int_baseILi8ELb1ELb1EEaSERKS0_", metadata !66, i32 1582, metadata !1329, i1 false, i1 false, i32 0, i32 0, null, i32 256, i1 false, null, null, i32 0, metadata !78, i32 1582} ; [ DW_TAG_subprogram ]
!1329 = metadata !{i32 786453, i32 0, metadata !"", i32 0, i32 0, i64 0, i64 0, i64 0, i32 0, null, metadata !1330, i32 0, i32 0} ; [ DW_TAG_subroutine_type ]
!1330 = metadata !{metadata !1327, metadata !1262, metadata !1316}
!1331 = metadata !{i32 786478, i32 0, metadata !1246, metadata !"operator=", metadata !"operator=", metadata !"_ZN11ap_int_baseILi8ELb1ELb1EEaSEPKc", metadata !66, i32 1586, metadata !1332, i1 false, i1 false, i32 0, i32 0, null, i32 256, i1 false, null, null, i32 0, metadata !78, i32 1586} ; [ DW_TAG_subprogram ]
!1332 = metadata !{i32 786453, i32 0, metadata !"", i32 0, i32 0, i64 0, i64 0, i64 0, i32 0, null, metadata !1333, i32 0, i32 0} ; [ DW_TAG_subroutine_type ]
!1333 = metadata !{metadata !1327, metadata !1262, metadata !144}
!1334 = metadata !{i32 786478, i32 0, metadata !1246, metadata !"set", metadata !"set", metadata !"_ZN11ap_int_baseILi8ELb1ELb1EE3setEPKca", metadata !66, i32 1594, metadata !1335, i1 false, i1 false, i32 0, i32 0, null, i32 256, i1 false, null, null, i32 0, metadata !78, i32 1594} ; [ DW_TAG_subprogram ]
!1335 = metadata !{i32 786453, i32 0, metadata !"", i32 0, i32 0, i64 0, i64 0, i64 0, i32 0, null, metadata !1336, i32 0, i32 0} ; [ DW_TAG_subroutine_type ]
!1336 = metadata !{metadata !1327, metadata !1262, metadata !144, metadata !95}
!1337 = metadata !{i32 786478, i32 0, metadata !1246, metadata !"operator=", metadata !"operator=", metadata !"_ZN11ap_int_baseILi8ELb1ELb1EEaSEa", metadata !66, i32 1608, metadata !1338, i1 false, i1 false, i32 0, i32 0, null, i32 256, i1 false, null, null, i32 0, metadata !78, i32 1608} ; [ DW_TAG_subprogram ]
!1338 = metadata !{i32 786453, i32 0, metadata !"", i32 0, i32 0, i64 0, i64 0, i64 0, i32 0, null, metadata !1339, i32 0, i32 0} ; [ DW_TAG_subroutine_type ]
!1339 = metadata !{metadata !1327, metadata !1262, metadata !95}
!1340 = metadata !{i32 786478, i32 0, metadata !1246, metadata !"operator=", metadata !"operator=", metadata !"_ZN11ap_int_baseILi8ELb1ELb1EEaSEh", metadata !66, i32 1609, metadata !1341, i1 false, i1 false, i32 0, i32 0, null, i32 256, i1 false, null, null, i32 0, metadata !78, i32 1609} ; [ DW_TAG_subprogram ]
!1341 = metadata !{i32 786453, i32 0, metadata !"", i32 0, i32 0, i64 0, i64 0, i64 0, i32 0, null, metadata !1342, i32 0, i32 0} ; [ DW_TAG_subroutine_type ]
!1342 = metadata !{metadata !1327, metadata !1262, metadata !99}
!1343 = metadata !{i32 786478, i32 0, metadata !1246, metadata !"operator=", metadata !"operator=", metadata !"_ZN11ap_int_baseILi8ELb1ELb1EEaSEs", metadata !66, i32 1610, metadata !1344, i1 false, i1 false, i32 0, i32 0, null, i32 256, i1 false, null, null, i32 0, metadata !78, i32 1610} ; [ DW_TAG_subprogram ]
!1344 = metadata !{i32 786453, i32 0, metadata !"", i32 0, i32 0, i64 0, i64 0, i64 0, i32 0, null, metadata !1345, i32 0, i32 0} ; [ DW_TAG_subroutine_type ]
!1345 = metadata !{metadata !1327, metadata !1262, metadata !103}
!1346 = metadata !{i32 786478, i32 0, metadata !1246, metadata !"operator=", metadata !"operator=", metadata !"_ZN11ap_int_baseILi8ELb1ELb1EEaSEt", metadata !66, i32 1611, metadata !1347, i1 false, i1 false, i32 0, i32 0, null, i32 256, i1 false, null, null, i32 0, metadata !78, i32 1611} ; [ DW_TAG_subprogram ]
!1347 = metadata !{i32 786453, i32 0, metadata !"", i32 0, i32 0, i64 0, i64 0, i64 0, i32 0, null, metadata !1348, i32 0, i32 0} ; [ DW_TAG_subroutine_type ]
!1348 = metadata !{metadata !1327, metadata !1262, metadata !107}
!1349 = metadata !{i32 786478, i32 0, metadata !1246, metadata !"operator=", metadata !"operator=", metadata !"_ZN11ap_int_baseILi8ELb1ELb1EEaSEi", metadata !66, i32 1612, metadata !1350, i1 false, i1 false, i32 0, i32 0, null, i32 256, i1 false, null, null, i32 0, metadata !78, i32 1612} ; [ DW_TAG_subprogram ]
!1350 = metadata !{i32 786453, i32 0, metadata !"", i32 0, i32 0, i64 0, i64 0, i64 0, i32 0, null, metadata !1351, i32 0, i32 0} ; [ DW_TAG_subroutine_type ]
!1351 = metadata !{metadata !1327, metadata !1262, metadata !82}
!1352 = metadata !{i32 786478, i32 0, metadata !1246, metadata !"operator=", metadata !"operator=", metadata !"_ZN11ap_int_baseILi8ELb1ELb1EEaSEj", metadata !66, i32 1613, metadata !1353, i1 false, i1 false, i32 0, i32 0, null, i32 256, i1 false, null, null, i32 0, metadata !78, i32 1613} ; [ DW_TAG_subprogram ]
!1353 = metadata !{i32 786453, i32 0, metadata !"", i32 0, i32 0, i64 0, i64 0, i64 0, i32 0, null, metadata !1354, i32 0, i32 0} ; [ DW_TAG_subroutine_type ]
!1354 = metadata !{metadata !1327, metadata !1262, metadata !114}
!1355 = metadata !{i32 786478, i32 0, metadata !1246, metadata !"operator=", metadata !"operator=", metadata !"_ZN11ap_int_baseILi8ELb1ELb1EEaSEx", metadata !66, i32 1614, metadata !1356, i1 false, i1 false, i32 0, i32 0, null, i32 256, i1 false, null, null, i32 0, metadata !78, i32 1614} ; [ DW_TAG_subprogram ]
!1356 = metadata !{i32 786453, i32 0, metadata !"", i32 0, i32 0, i64 0, i64 0, i64 0, i32 0, null, metadata !1357, i32 0, i32 0} ; [ DW_TAG_subroutine_type ]
!1357 = metadata !{metadata !1327, metadata !1262, metadata !126}
!1358 = metadata !{i32 786478, i32 0, metadata !1246, metadata !"operator=", metadata !"operator=", metadata !"_ZN11ap_int_baseILi8ELb1ELb1EEaSEy", metadata !66, i32 1615, metadata !1359, i1 false, i1 false, i32 0, i32 0, null, i32 256, i1 false, null, null, i32 0, metadata !78, i32 1615} ; [ DW_TAG_subprogram ]
!1359 = metadata !{i32 786453, i32 0, metadata !"", i32 0, i32 0, i64 0, i64 0, i64 0, i32 0, null, metadata !1360, i32 0, i32 0} ; [ DW_TAG_subroutine_type ]
!1360 = metadata !{metadata !1327, metadata !1262, metadata !131}
!1361 = metadata !{i32 786478, i32 0, metadata !1246, metadata !"operator signed char", metadata !"operator signed char", metadata !"_ZNK11ap_int_baseILi8ELb1ELb1EEcvaEv", metadata !66, i32 1653, metadata !1362, i1 false, i1 false, i32 0, i32 0, null, i32 256, i1 false, null, null, i32 0, metadata !78, i32 1653} ; [ DW_TAG_subprogram ]
!1362 = metadata !{i32 786453, i32 0, metadata !"", i32 0, i32 0, i64 0, i64 0, i64 0, i32 0, null, metadata !1363, i32 0, i32 0} ; [ DW_TAG_subroutine_type ]
!1363 = metadata !{metadata !1364, metadata !1365}
!1364 = metadata !{i32 786454, metadata !1246, metadata !"RetType", metadata !66, i32 1402, i64 0, i64 0, i64 0, i32 0, metadata !1164} ; [ DW_TAG_typedef ]
!1365 = metadata !{i32 786447, i32 0, metadata !"", i32 0, i32 0, i64 64, i64 64, i64 0, i32 64, metadata !1317} ; [ DW_TAG_pointer_type ]
!1366 = metadata !{i32 786478, i32 0, metadata !1246, metadata !"to_bool", metadata !"to_bool", metadata !"_ZNK11ap_int_baseILi8ELb1ELb1EE7to_boolEv", metadata !66, i32 1659, metadata !1367, i1 false, i1 false, i32 0, i32 0, null, i32 256, i1 false, null, null, i32 0, metadata !78, i32 1659} ; [ DW_TAG_subprogram ]
!1367 = metadata !{i32 786453, i32 0, metadata !"", i32 0, i32 0, i64 0, i64 0, i64 0, i32 0, null, metadata !1368, i32 0, i32 0} ; [ DW_TAG_subroutine_type ]
!1368 = metadata !{metadata !84, metadata !1365}
